Archive member included to satisfy reference by file (symbol)

c:/program files (x86)/atollic/truestudio for stm32 9.1.0/armtools/bin/../lib/gcc/arm-atollic-eabi/6.3.1/../../../../arm-atollic-eabi/lib/armv7-m\libc.a(lib_a-init.o)
                              src\startup_stm32f10x_md.o (__libc_init_array)
c:/program files (x86)/atollic/truestudio for stm32 9.1.0/armtools/bin/../lib/gcc/arm-atollic-eabi/6.3.1/../../../../arm-atollic-eabi/lib/armv7-m\libc.a(lib_a-memcmp.o)
                              src\gcode.o (memcmp)
c:/program files (x86)/atollic/truestudio for stm32 9.1.0/armtools/bin/../lib/gcc/arm-atollic-eabi/6.3.1/../../../../arm-atollic-eabi/lib/armv7-m\libc.a(lib_a-memset.o)
                              src\eeprom.o (memset)
c:/program files (x86)/atollic/truestudio for stm32 9.1.0/armtools/bin/../lib/gcc/arm-atollic-eabi/6.3.1/../../../../arm-atollic-eabi/lib/armv7-m\libm.a(lib_a-sf_ceil.o)
                              src\nuts_bolts.o (ceilf)
c:/program files (x86)/atollic/truestudio for stm32 9.1.0/armtools/bin/../lib/gcc/arm-atollic-eabi/6.3.1/../../../../arm-atollic-eabi/lib/armv7-m\libm.a(lib_a-sf_cos.o)
                              src\motion_control.o (cosf)
c:/program files (x86)/atollic/truestudio for stm32 9.1.0/armtools/bin/../lib/gcc/arm-atollic-eabi/6.3.1/../../../../arm-atollic-eabi/lib/armv7-m\libm.a(lib_a-sf_floor.o)
                              src\motion_control.o (floorf)
c:/program files (x86)/atollic/truestudio for stm32 9.1.0/armtools/bin/../lib/gcc/arm-atollic-eabi/6.3.1/../../../../arm-atollic-eabi/lib/armv7-m\libm.a(lib_a-sf_lround.o)
                              src\gcode.o (lroundf)
c:/program files (x86)/atollic/truestudio for stm32 9.1.0/armtools/bin/../lib/gcc/arm-atollic-eabi/6.3.1/../../../../arm-atollic-eabi/lib/armv7-m\libm.a(lib_a-sf_sin.o)
                              src\motion_control.o (sinf)
c:/program files (x86)/atollic/truestudio for stm32 9.1.0/armtools/bin/../lib/gcc/arm-atollic-eabi/6.3.1/../../../../arm-atollic-eabi/lib/armv7-m\libm.a(lib_a-wf_atan2.o)
                              src\motion_control.o (atan2f)
c:/program files (x86)/atollic/truestudio for stm32 9.1.0/armtools/bin/../lib/gcc/arm-atollic-eabi/6.3.1/../../../../arm-atollic-eabi/lib/armv7-m\libm.a(lib_a-wf_sqrt.o)
                              src\gcode.o (sqrtf)
c:/program files (x86)/atollic/truestudio for stm32 9.1.0/armtools/bin/../lib/gcc/arm-atollic-eabi/6.3.1/../../../../arm-atollic-eabi/lib/armv7-m\libm.a(lib_a-ef_atan2.o)
                              c:/program files (x86)/atollic/truestudio for stm32 9.1.0/armtools/bin/../lib/gcc/arm-atollic-eabi/6.3.1/../../../../arm-atollic-eabi/lib/armv7-m\libm.a(lib_a-wf_atan2.o) (__ieee754_atan2f)
c:/program files (x86)/atollic/truestudio for stm32 9.1.0/armtools/bin/../lib/gcc/arm-atollic-eabi/6.3.1/../../../../arm-atollic-eabi/lib/armv7-m\libm.a(lib_a-ef_rem_pio2.o)
                              c:/program files (x86)/atollic/truestudio for stm32 9.1.0/armtools/bin/../lib/gcc/arm-atollic-eabi/6.3.1/../../../../arm-atollic-eabi/lib/armv7-m\libm.a(lib_a-sf_cos.o) (__ieee754_rem_pio2f)
c:/program files (x86)/atollic/truestudio for stm32 9.1.0/armtools/bin/../lib/gcc/arm-atollic-eabi/6.3.1/../../../../arm-atollic-eabi/lib/armv7-m\libm.a(lib_a-ef_sqrt.o)
                              c:/program files (x86)/atollic/truestudio for stm32 9.1.0/armtools/bin/../lib/gcc/arm-atollic-eabi/6.3.1/../../../../arm-atollic-eabi/lib/armv7-m\libm.a(lib_a-wf_sqrt.o) (__ieee754_sqrtf)
c:/program files (x86)/atollic/truestudio for stm32 9.1.0/armtools/bin/../lib/gcc/arm-atollic-eabi/6.3.1/../../../../arm-atollic-eabi/lib/armv7-m\libm.a(lib_a-kf_cos.o)
                              c:/program files (x86)/atollic/truestudio for stm32 9.1.0/armtools/bin/../lib/gcc/arm-atollic-eabi/6.3.1/../../../../arm-atollic-eabi/lib/armv7-m\libm.a(lib_a-sf_cos.o) (__kernel_cosf)
c:/program files (x86)/atollic/truestudio for stm32 9.1.0/armtools/bin/../lib/gcc/arm-atollic-eabi/6.3.1/../../../../arm-atollic-eabi/lib/armv7-m\libm.a(lib_a-kf_rem_pio2.o)
                              c:/program files (x86)/atollic/truestudio for stm32 9.1.0/armtools/bin/../lib/gcc/arm-atollic-eabi/6.3.1/../../../../arm-atollic-eabi/lib/armv7-m\libm.a(lib_a-ef_rem_pio2.o) (__kernel_rem_pio2f)
c:/program files (x86)/atollic/truestudio for stm32 9.1.0/armtools/bin/../lib/gcc/arm-atollic-eabi/6.3.1/../../../../arm-atollic-eabi/lib/armv7-m\libm.a(lib_a-kf_sin.o)
                              c:/program files (x86)/atollic/truestudio for stm32 9.1.0/armtools/bin/../lib/gcc/arm-atollic-eabi/6.3.1/../../../../arm-atollic-eabi/lib/armv7-m\libm.a(lib_a-sf_cos.o) (__kernel_sinf)
c:/program files (x86)/atollic/truestudio for stm32 9.1.0/armtools/bin/../lib/gcc/arm-atollic-eabi/6.3.1/../../../../arm-atollic-eabi/lib/armv7-m\libm.a(lib_a-s_lib_ver.o)
                              c:/program files (x86)/atollic/truestudio for stm32 9.1.0/armtools/bin/../lib/gcc/arm-atollic-eabi/6.3.1/../../../../arm-atollic-eabi/lib/armv7-m\libm.a(lib_a-wf_sqrt.o) (__fdlib_version)
c:/program files (x86)/atollic/truestudio for stm32 9.1.0/armtools/bin/../lib/gcc/arm-atollic-eabi/6.3.1/../../../../arm-atollic-eabi/lib/armv7-m\libm.a(lib_a-s_matherr.o)
                              c:/program files (x86)/atollic/truestudio for stm32 9.1.0/armtools/bin/../lib/gcc/arm-atollic-eabi/6.3.1/../../../../arm-atollic-eabi/lib/armv7-m\libm.a(lib_a-wf_sqrt.o) (matherr)
c:/program files (x86)/atollic/truestudio for stm32 9.1.0/armtools/bin/../lib/gcc/arm-atollic-eabi/6.3.1/../../../../arm-atollic-eabi/lib/armv7-m\libm.a(lib_a-sf_atan.o)
                              c:/program files (x86)/atollic/truestudio for stm32 9.1.0/armtools/bin/../lib/gcc/arm-atollic-eabi/6.3.1/../../../../arm-atollic-eabi/lib/armv7-m\libm.a(lib_a-ef_atan2.o) (atanf)
c:/program files (x86)/atollic/truestudio for stm32 9.1.0/armtools/bin/../lib/gcc/arm-atollic-eabi/6.3.1/../../../../arm-atollic-eabi/lib/armv7-m\libm.a(lib_a-sf_fabs.o)
                              c:/program files (x86)/atollic/truestudio for stm32 9.1.0/armtools/bin/../lib/gcc/arm-atollic-eabi/6.3.1/../../../../arm-atollic-eabi/lib/armv7-m\libm.a(lib_a-ef_atan2.o) (fabsf)
c:/program files (x86)/atollic/truestudio for stm32 9.1.0/armtools/bin/../lib/gcc/arm-atollic-eabi/6.3.1/../../../../arm-atollic-eabi/lib/armv7-m\libm.a(lib_a-sf_scalbn.o)
                              c:/program files (x86)/atollic/truestudio for stm32 9.1.0/armtools/bin/../lib/gcc/arm-atollic-eabi/6.3.1/../../../../arm-atollic-eabi/lib/armv7-m\libm.a(lib_a-kf_rem_pio2.o) (scalbnf)
c:/program files (x86)/atollic/truestudio for stm32 9.1.0/armtools/bin/../lib/gcc/arm-atollic-eabi/6.3.1/../../../../arm-atollic-eabi/lib/armv7-m\libm.a(lib_a-sf_copysign.o)
                              c:/program files (x86)/atollic/truestudio for stm32 9.1.0/armtools/bin/../lib/gcc/arm-atollic-eabi/6.3.1/../../../../arm-atollic-eabi/lib/armv7-m\libm.a(lib_a-sf_scalbn.o) (copysignf)
c:/program files (x86)/atollic/truestudio for stm32 9.1.0/armtools/bin/../lib/gcc/arm-atollic-eabi/6.3.1/../../../../arm-atollic-eabi/lib/armv7-m\libc.a(lib_a-errno.o)
                              c:/program files (x86)/atollic/truestudio for stm32 9.1.0/armtools/bin/../lib/gcc/arm-atollic-eabi/6.3.1/../../../../arm-atollic-eabi/lib/armv7-m\libm.a(lib_a-wf_sqrt.o) (__errno)
c:/program files (x86)/atollic/truestudio for stm32 9.1.0/armtools/bin/../lib/gcc/arm-atollic-eabi/6.3.1/../../../../arm-atollic-eabi/lib/armv7-m\libc.a(lib_a-impure.o)
                              c:/program files (x86)/atollic/truestudio for stm32 9.1.0/armtools/bin/../lib/gcc/arm-atollic-eabi/6.3.1/../../../../arm-atollic-eabi/lib/armv7-m\libc.a(lib_a-errno.o) (_impure_ptr)
c:/program files (x86)/atollic/truestudio for stm32 9.1.0/armtools/bin/../lib/gcc/arm-atollic-eabi/6.3.1/armv7-m\libgcc.a(_arm_addsubdf3.o)
                              src\motion_control.o (__aeabi_dsub)
c:/program files (x86)/atollic/truestudio for stm32 9.1.0/armtools/bin/../lib/gcc/arm-atollic-eabi/6.3.1/armv7-m\libgcc.a(_arm_muldivdf3.o)
                              c:/program files (x86)/atollic/truestudio for stm32 9.1.0/armtools/bin/../lib/gcc/arm-atollic-eabi/6.3.1/../../../../arm-atollic-eabi/lib/armv7-m\libm.a(lib_a-wf_sqrt.o) (__aeabi_ddiv)
c:/program files (x86)/atollic/truestudio for stm32 9.1.0/armtools/bin/../lib/gcc/arm-atollic-eabi/6.3.1/armv7-m\libgcc.a(_arm_cmpdf2.o)
                              src\motion_control.o (__aeabi_dcmple)
c:/program files (x86)/atollic/truestudio for stm32 9.1.0/armtools/bin/../lib/gcc/arm-atollic-eabi/6.3.1/armv7-m\libgcc.a(_arm_truncdfsf2.o)
                              src\motion_control.o (__aeabi_d2f)
c:/program files (x86)/atollic/truestudio for stm32 9.1.0/armtools/bin/../lib/gcc/arm-atollic-eabi/6.3.1/armv7-m\libgcc.a(_arm_addsubsf3.o)
                              src\gcode.o (__aeabi_fsub)
c:/program files (x86)/atollic/truestudio for stm32 9.1.0/armtools/bin/../lib/gcc/arm-atollic-eabi/6.3.1/armv7-m\libgcc.a(_arm_muldivsf3.o)
                              src\gcode.o (__aeabi_fmul)
c:/program files (x86)/atollic/truestudio for stm32 9.1.0/armtools/bin/../lib/gcc/arm-atollic-eabi/6.3.1/armv7-m\libgcc.a(_arm_cmpsf2.o)
                              src\gcode.o (__aeabi_fcmpeq)
c:/program files (x86)/atollic/truestudio for stm32 9.1.0/armtools/bin/../lib/gcc/arm-atollic-eabi/6.3.1/armv7-m\libgcc.a(_arm_unordsf2.o)
                              c:/program files (x86)/atollic/truestudio for stm32 9.1.0/armtools/bin/../lib/gcc/arm-atollic-eabi/6.3.1/../../../../arm-atollic-eabi/lib/armv7-m\libm.a(lib_a-wf_sqrt.o) (__aeabi_fcmpun)
c:/program files (x86)/atollic/truestudio for stm32 9.1.0/armtools/bin/../lib/gcc/arm-atollic-eabi/6.3.1/armv7-m\libgcc.a(_arm_fixsfsi.o)
                              src\gcode.o (__aeabi_f2iz)
c:/program files (x86)/atollic/truestudio for stm32 9.1.0/armtools/bin/../lib/gcc/arm-atollic-eabi/6.3.1/armv7-m\libgcc.a(_arm_fixunssfsi.o)
                              src\gcode.o (__aeabi_f2uiz)

Allocating common symbols
Common symbol       size              file

SaveRState          0x2               stm_usb_fs_lib\src\usb_int.o
HSEStartUpStatus    0x1               usb\hw_config.o
sys_rt_exec_motion_override
                    0x1               src\main.o
SaveState           0x2               stm_usb_fs_lib\src\usb_init.o
settings            0x6c              src\settings.o
probe_invert_mask   0x2               src\probe.o
sys                 0x14              src\main.o
wIstr               0x2               usb\usb_istr.o
gc_state            0x50              src\gcode.o
sys_rt_exec_accessory_override
                    0x1               src\main.o
pProperty           0x4               stm_usb_fs_lib\src\usb_init.o
sys_rt_exec_state   0x1               src\main.o
EPindex             0x1               stm_usb_fs_lib\src\usb_init.o
sys_probe_state     0x1               src\main.o
gc_block            0x48              src\gcode.o
SaveTState          0x2               stm_usb_fs_lib\src\usb_int.o
Device_Info         0x1c              stm_usb_fs_lib\src\usb_init.o
pUser_Standard_Requests
                    0x4               stm_usb_fs_lib\src\usb_init.o
serial_tx_buffer    0x80              src\serial.o
serial_rx_buffer    0xfe              src\serial.o
sys_probe_position  0x10              src\main.o
USB_Rx_Buffer       0x40              usb\usb_endp.o
sys_position        0x10              src\main.o
StatusInfo          0x2               stm_usb_fs_lib\src\usb_core.o
pInformation        0x4               stm_usb_fs_lib\src\usb_init.o
ResumeS             0x2               usb\usb_pwr.o
sys_rt_exec_alarm   0x1               src\main.o
EE_Buffer           0x400             src\eeprom.o
wInterrupt_Mask     0x2               stm_usb_fs_lib\src\usb_init.o

Discarded input sections

 .text          0x00000000        0x0 c:/program files (x86)/atollic/truestudio for stm32 9.1.0/armtools/bin/../lib/gcc/arm-atollic-eabi/6.3.1/armv7-m/crti.o
 .data          0x00000000        0x0 c:/program files (x86)/atollic/truestudio for stm32 9.1.0/armtools/bin/../lib/gcc/arm-atollic-eabi/6.3.1/armv7-m/crti.o
 .bss           0x00000000        0x0 c:/program files (x86)/atollic/truestudio for stm32 9.1.0/armtools/bin/../lib/gcc/arm-atollic-eabi/6.3.1/armv7-m/crti.o
 .data          0x00000000        0x4 c:/program files (x86)/atollic/truestudio for stm32 9.1.0/armtools/bin/../lib/gcc/arm-atollic-eabi/6.3.1/armv7-m/crtbegin.o
 .text          0x00000000        0x0 Libraries\STM32F10x_StdPeriph_Driver\src\misc.o
 .data          0x00000000        0x0 Libraries\STM32F10x_StdPeriph_Driver\src\misc.o
 .bss           0x00000000        0x0 Libraries\STM32F10x_StdPeriph_Driver\src\misc.o
 .text.NVIC_SetVectorTable
                0x00000000       0x14 Libraries\STM32F10x_StdPeriph_Driver\src\misc.o
 .text.NVIC_SystemLPConfig
                0x00000000       0x1c Libraries\STM32F10x_StdPeriph_Driver\src\misc.o
 .text.SysTick_CLKSourceConfig
                0x00000000       0x18 Libraries\STM32F10x_StdPeriph_Driver\src\misc.o
 .text          0x00000000        0x0 Libraries\STM32F10x_StdPeriph_Driver\src\stm32f10x_adc.o
 .data          0x00000000        0x0 Libraries\STM32F10x_StdPeriph_Driver\src\stm32f10x_adc.o
 .bss           0x00000000        0x0 Libraries\STM32F10x_StdPeriph_Driver\src\stm32f10x_adc.o
 .text.ADC_DeInit
                0x00000000       0x6c Libraries\STM32F10x_StdPeriph_Driver\src\stm32f10x_adc.o
 .text.ADC_Init
                0x00000000       0x48 Libraries\STM32F10x_StdPeriph_Driver\src\stm32f10x_adc.o
 .text.ADC_StructInit
                0x00000000       0x14 Libraries\STM32F10x_StdPeriph_Driver\src\stm32f10x_adc.o
 .text.ADC_Cmd  0x00000000       0x14 Libraries\STM32F10x_StdPeriph_Driver\src\stm32f10x_adc.o
 .text.ADC_DMACmd
                0x00000000       0x14 Libraries\STM32F10x_StdPeriph_Driver\src\stm32f10x_adc.o
 .text.ADC_ITConfig
                0x00000000       0x14 Libraries\STM32F10x_StdPeriph_Driver\src\stm32f10x_adc.o
 .text.ADC_ResetCalibration
                0x00000000        0xc Libraries\STM32F10x_StdPeriph_Driver\src\stm32f10x_adc.o
 .text.ADC_GetResetCalibrationStatus
                0x00000000        0x8 Libraries\STM32F10x_StdPeriph_Driver\src\stm32f10x_adc.o
 .text.ADC_StartCalibration
                0x00000000        0xc Libraries\STM32F10x_StdPeriph_Driver\src\stm32f10x_adc.o
 .text.ADC_GetCalibrationStatus
                0x00000000        0x8 Libraries\STM32F10x_StdPeriph_Driver\src\stm32f10x_adc.o
 .text.ADC_SoftwareStartConvCmd
                0x00000000       0x14 Libraries\STM32F10x_StdPeriph_Driver\src\stm32f10x_adc.o
 .text.ADC_GetSoftwareStartConvStatus
                0x00000000        0x8 Libraries\STM32F10x_StdPeriph_Driver\src\stm32f10x_adc.o
 .text.ADC_DiscModeChannelCountConfig
                0x00000000       0x10 Libraries\STM32F10x_StdPeriph_Driver\src\stm32f10x_adc.o
 .text.ADC_DiscModeCmd
                0x00000000       0x14 Libraries\STM32F10x_StdPeriph_Driver\src\stm32f10x_adc.o
 .text.ADC_RegularChannelConfig
                0x00000000       0x90 Libraries\STM32F10x_StdPeriph_Driver\src\stm32f10x_adc.o
 .text.ADC_ExternalTrigConvCmd
                0x00000000       0x14 Libraries\STM32F10x_StdPeriph_Driver\src\stm32f10x_adc.o
 .text.ADC_GetConversionValue
                0x00000000        0x8 Libraries\STM32F10x_StdPeriph_Driver\src\stm32f10x_adc.o
 .text.ADC_GetDualModeConversionValue
                0x00000000        0xc Libraries\STM32F10x_StdPeriph_Driver\src\stm32f10x_adc.o
 .text.ADC_AutoInjectedConvCmd
                0x00000000       0x14 Libraries\STM32F10x_StdPeriph_Driver\src\stm32f10x_adc.o
 .text.ADC_InjectedDiscModeCmd
                0x00000000       0x14 Libraries\STM32F10x_StdPeriph_Driver\src\stm32f10x_adc.o
 .text.ADC_ExternalTrigInjectedConvConfig
                0x00000000        0xc Libraries\STM32F10x_StdPeriph_Driver\src\stm32f10x_adc.o
 .text.ADC_ExternalTrigInjectedConvCmd
                0x00000000       0x14 Libraries\STM32F10x_StdPeriph_Driver\src\stm32f10x_adc.o
 .text.ADC_SoftwareStartInjectedConvCmd
                0x00000000       0x14 Libraries\STM32F10x_StdPeriph_Driver\src\stm32f10x_adc.o
 .text.ADC_GetSoftwareStartInjectedConvCmdStatus
                0x00000000        0x8 Libraries\STM32F10x_StdPeriph_Driver\src\stm32f10x_adc.o
 .text.ADC_InjectedChannelConfig
                0x00000000       0x58 Libraries\STM32F10x_StdPeriph_Driver\src\stm32f10x_adc.o
 .text.ADC_InjectedSequencerLengthConfig
                0x00000000       0x10 Libraries\STM32F10x_StdPeriph_Driver\src\stm32f10x_adc.o
 .text.ADC_SetInjectedOffset
                0x00000000       0x18 Libraries\STM32F10x_StdPeriph_Driver\src\stm32f10x_adc.o
 .text.ADC_GetInjectedConversionValue
                0x00000000       0x1c Libraries\STM32F10x_StdPeriph_Driver\src\stm32f10x_adc.o
 .text.ADC_AnalogWatchdogCmd
                0x00000000       0x10 Libraries\STM32F10x_StdPeriph_Driver\src\stm32f10x_adc.o
 .text.ADC_AnalogWatchdogThresholdsConfig
                0x00000000        0x8 Libraries\STM32F10x_StdPeriph_Driver\src\stm32f10x_adc.o
 .text.ADC_AnalogWatchdogSingleChannelConfig
                0x00000000        0xc Libraries\STM32F10x_StdPeriph_Driver\src\stm32f10x_adc.o
 .text.ADC_TempSensorVrefintCmd
                0x00000000       0x1c Libraries\STM32F10x_StdPeriph_Driver\src\stm32f10x_adc.o
 .text.ADC_GetFlagStatus
                0x00000000        0xc Libraries\STM32F10x_StdPeriph_Driver\src\stm32f10x_adc.o
 .text.ADC_ClearFlag
                0x00000000        0x8 Libraries\STM32F10x_StdPeriph_Driver\src\stm32f10x_adc.o
 .text.ADC_GetITStatus
                0x00000000       0x18 Libraries\STM32F10x_StdPeriph_Driver\src\stm32f10x_adc.o
 .text.ADC_ClearITPendingBit
                0x00000000        0x8 Libraries\STM32F10x_StdPeriph_Driver\src\stm32f10x_adc.o
 .debug_info    0x00000000      0xc38 Libraries\STM32F10x_StdPeriph_Driver\src\stm32f10x_adc.o
 .debug_abbrev  0x00000000      0x1f9 Libraries\STM32F10x_StdPeriph_Driver\src\stm32f10x_adc.o
 .debug_loc     0x00000000      0x9ce Libraries\STM32F10x_StdPeriph_Driver\src\stm32f10x_adc.o
 .debug_aranges
                0x00000000      0x138 Libraries\STM32F10x_StdPeriph_Driver\src\stm32f10x_adc.o
 .debug_ranges  0x00000000      0x128 Libraries\STM32F10x_StdPeriph_Driver\src\stm32f10x_adc.o
 .debug_line    0x00000000      0x581 Libraries\STM32F10x_StdPeriph_Driver\src\stm32f10x_adc.o
 .debug_str     0x00000000      0x79c Libraries\STM32F10x_StdPeriph_Driver\src\stm32f10x_adc.o
 .comment       0x00000000       0x7d Libraries\STM32F10x_StdPeriph_Driver\src\stm32f10x_adc.o
 .debug_frame   0x00000000      0x2c0 Libraries\STM32F10x_StdPeriph_Driver\src\stm32f10x_adc.o
 .ARM.attributes
                0x00000000       0x2f Libraries\STM32F10x_StdPeriph_Driver\src\stm32f10x_adc.o
 .text          0x00000000        0x0 Libraries\STM32F10x_StdPeriph_Driver\src\stm32f10x_bkp.o
 .data          0x00000000        0x0 Libraries\STM32F10x_StdPeriph_Driver\src\stm32f10x_bkp.o
 .bss           0x00000000        0x0 Libraries\STM32F10x_StdPeriph_Driver\src\stm32f10x_bkp.o
 .text.BKP_DeInit
                0x00000000       0x14 Libraries\STM32F10x_StdPeriph_Driver\src\stm32f10x_bkp.o
 .text.BKP_TamperPinLevelConfig
                0x00000000        0xc Libraries\STM32F10x_StdPeriph_Driver\src\stm32f10x_bkp.o
 .text.BKP_TamperPinCmd
                0x00000000        0xc Libraries\STM32F10x_StdPeriph_Driver\src\stm32f10x_bkp.o
 .text.BKP_ITConfig
                0x00000000        0xc Libraries\STM32F10x_StdPeriph_Driver\src\stm32f10x_bkp.o
 .text.BKP_RTCOutputConfig
                0x00000000       0x18 Libraries\STM32F10x_StdPeriph_Driver\src\stm32f10x_bkp.o
 .text.BKP_SetRTCCalibrationValue
                0x00000000       0x18 Libraries\STM32F10x_StdPeriph_Driver\src\stm32f10x_bkp.o
 .text.BKP_WriteBackupRegister
                0x00000000       0x1c Libraries\STM32F10x_StdPeriph_Driver\src\stm32f10x_bkp.o
 .text.BKP_ReadBackupRegister
                0x00000000       0x20 Libraries\STM32F10x_StdPeriph_Driver\src\stm32f10x_bkp.o
 .text.BKP_GetFlagStatus
                0x00000000        0xc Libraries\STM32F10x_StdPeriph_Driver\src\stm32f10x_bkp.o
 .text.BKP_ClearFlag
                0x00000000       0x14 Libraries\STM32F10x_StdPeriph_Driver\src\stm32f10x_bkp.o
 .text.BKP_GetITStatus
                0x00000000        0xc Libraries\STM32F10x_StdPeriph_Driver\src\stm32f10x_bkp.o
 .text.BKP_ClearITPendingBit
                0x00000000       0x14 Libraries\STM32F10x_StdPeriph_Driver\src\stm32f10x_bkp.o
 .debug_info    0x00000000      0x7e9 Libraries\STM32F10x_StdPeriph_Driver\src\stm32f10x_bkp.o
 .debug_abbrev  0x00000000      0x1a7 Libraries\STM32F10x_StdPeriph_Driver\src\stm32f10x_bkp.o
 .debug_loc     0x00000000       0xee Libraries\STM32F10x_StdPeriph_Driver\src\stm32f10x_bkp.o
 .debug_aranges
                0x00000000       0x78 Libraries\STM32F10x_StdPeriph_Driver\src\stm32f10x_bkp.o
 .debug_ranges  0x00000000       0x68 Libraries\STM32F10x_StdPeriph_Driver\src\stm32f10x_bkp.o
 .debug_line    0x00000000      0x2e5 Libraries\STM32F10x_StdPeriph_Driver\src\stm32f10x_bkp.o
 .debug_str     0x00000000      0x652 Libraries\STM32F10x_StdPeriph_Driver\src\stm32f10x_bkp.o
 .comment       0x00000000       0x7d Libraries\STM32F10x_StdPeriph_Driver\src\stm32f10x_bkp.o
 .debug_frame   0x00000000       0xec Libraries\STM32F10x_StdPeriph_Driver\src\stm32f10x_bkp.o
 .ARM.attributes
                0x00000000       0x2f Libraries\STM32F10x_StdPeriph_Driver\src\stm32f10x_bkp.o
 .text          0x00000000        0x0 Libraries\STM32F10x_StdPeriph_Driver\src\stm32f10x_can.o
 .data          0x00000000        0x0 Libraries\STM32F10x_StdPeriph_Driver\src\stm32f10x_can.o
 .bss           0x00000000        0x0 Libraries\STM32F10x_StdPeriph_Driver\src\stm32f10x_can.o
 .text.CAN_DeInit
                0x00000000       0x3c Libraries\STM32F10x_StdPeriph_Driver\src\stm32f10x_can.o
 .text.CAN_Init
                0x00000000       0xe8 Libraries\STM32F10x_StdPeriph_Driver\src\stm32f10x_can.o
 .text.CAN_FilterInit
                0x00000000       0xf0 Libraries\STM32F10x_StdPeriph_Driver\src\stm32f10x_can.o
 .text.CAN_StructInit
                0x00000000       0x24 Libraries\STM32F10x_StdPeriph_Driver\src\stm32f10x_can.o
 .text.CAN_SlaveStartBank
                0x00000000       0x3c Libraries\STM32F10x_StdPeriph_Driver\src\stm32f10x_can.o
 .text.CAN_DBGFreeze
                0x00000000       0x14 Libraries\STM32F10x_StdPeriph_Driver\src\stm32f10x_can.o
 .text.CAN_TTComModeCmd
                0x00000000       0x5c Libraries\STM32F10x_StdPeriph_Driver\src\stm32f10x_can.o
 .text.CAN_Transmit
                0x00000000       0xac Libraries\STM32F10x_StdPeriph_Driver\src\stm32f10x_can.o
 .text.CAN_TransmitStatus
                0x00000000       0x50 Libraries\STM32F10x_StdPeriph_Driver\src\stm32f10x_can.o
 .text.CAN_CancelTransmit
                0x00000000       0x2c Libraries\STM32F10x_StdPeriph_Driver\src\stm32f10x_can.o
 .text.CAN_Receive
                0x00000000       0x98 Libraries\STM32F10x_StdPeriph_Driver\src\stm32f10x_can.o
 .text.CAN_FIFORelease
                0x00000000       0x18 Libraries\STM32F10x_StdPeriph_Driver\src\stm32f10x_can.o
 .text.CAN_MessagePending
                0x00000000       0x18 Libraries\STM32F10x_StdPeriph_Driver\src\stm32f10x_can.o
 .text.CAN_OperatingModeRequest
                0x00000000       0xb4 Libraries\STM32F10x_StdPeriph_Driver\src\stm32f10x_can.o
 .text.CAN_Sleep
                0x00000000       0x20 Libraries\STM32F10x_StdPeriph_Driver\src\stm32f10x_can.o
 .text.CAN_WakeUp
                0x00000000       0x2c Libraries\STM32F10x_StdPeriph_Driver\src\stm32f10x_can.o
 .text.CAN_GetLastErrorCode
                0x00000000        0x8 Libraries\STM32F10x_StdPeriph_Driver\src\stm32f10x_can.o
 .text.CAN_GetReceiveErrorCounter
                0x00000000        0x8 Libraries\STM32F10x_StdPeriph_Driver\src\stm32f10x_can.o
 .text.CAN_GetLSBTransmitErrorCounter
                0x00000000        0x8 Libraries\STM32F10x_StdPeriph_Driver\src\stm32f10x_can.o
 .text.CAN_ITConfig
                0x00000000       0x14 Libraries\STM32F10x_StdPeriph_Driver\src\stm32f10x_can.o
 .text.CAN_GetFlagStatus
                0x00000000       0x54 Libraries\STM32F10x_StdPeriph_Driver\src\stm32f10x_can.o
 .text.CAN_ClearFlag
                0x00000000       0x30 Libraries\STM32F10x_StdPeriph_Driver\src\stm32f10x_can.o
 .text.CAN_GetITStatus
                0x00000000       0xe0 Libraries\STM32F10x_StdPeriph_Driver\src\stm32f10x_can.o
 .text.CAN_ClearITPendingBit
                0x00000000       0x8c Libraries\STM32F10x_StdPeriph_Driver\src\stm32f10x_can.o
 .debug_info    0x00000000      0xcb8 Libraries\STM32F10x_StdPeriph_Driver\src\stm32f10x_can.o
 .debug_abbrev  0x00000000      0x2a9 Libraries\STM32F10x_StdPeriph_Driver\src\stm32f10x_can.o
 .debug_loc     0x00000000      0x8b4 Libraries\STM32F10x_StdPeriph_Driver\src\stm32f10x_can.o
 .debug_aranges
                0x00000000       0xd8 Libraries\STM32F10x_StdPeriph_Driver\src\stm32f10x_can.o
 .debug_ranges  0x00000000      0x150 Libraries\STM32F10x_StdPeriph_Driver\src\stm32f10x_can.o
 .debug_line    0x00000000      0x618 Libraries\STM32F10x_StdPeriph_Driver\src\stm32f10x_can.o
 .debug_str     0x00000000      0x7cf Libraries\STM32F10x_StdPeriph_Driver\src\stm32f10x_can.o
 .comment       0x00000000       0x7d Libraries\STM32F10x_StdPeriph_Driver\src\stm32f10x_can.o
 .debug_frame   0x00000000      0x200 Libraries\STM32F10x_StdPeriph_Driver\src\stm32f10x_can.o
 .ARM.attributes
                0x00000000       0x2f Libraries\STM32F10x_StdPeriph_Driver\src\stm32f10x_can.o
 .text          0x00000000        0x0 Libraries\STM32F10x_StdPeriph_Driver\src\stm32f10x_cec.o
 .data          0x00000000        0x0 Libraries\STM32F10x_StdPeriph_Driver\src\stm32f10x_cec.o
 .bss           0x00000000        0x0 Libraries\STM32F10x_StdPeriph_Driver\src\stm32f10x_cec.o
 .text.CEC_DeInit
                0x00000000       0x1c Libraries\STM32F10x_StdPeriph_Driver\src\stm32f10x_cec.o
 .text.CEC_Init
                0x00000000       0x1c Libraries\STM32F10x_StdPeriph_Driver\src\stm32f10x_cec.o
 .text.CEC_Cmd  0x00000000       0x18 Libraries\STM32F10x_StdPeriph_Driver\src\stm32f10x_cec.o
 .text.CEC_ITConfig
                0x00000000        0xc Libraries\STM32F10x_StdPeriph_Driver\src\stm32f10x_cec.o
 .text.CEC_OwnAddressConfig
                0x00000000        0xc Libraries\STM32F10x_StdPeriph_Driver\src\stm32f10x_cec.o
 .text.CEC_SetPrescaler
                0x00000000        0xc Libraries\STM32F10x_StdPeriph_Driver\src\stm32f10x_cec.o
 .text.CEC_SendDataByte
                0x00000000        0xc Libraries\STM32F10x_StdPeriph_Driver\src\stm32f10x_cec.o
 .text.CEC_ReceiveDataByte
                0x00000000        0xc Libraries\STM32F10x_StdPeriph_Driver\src\stm32f10x_cec.o
 .text.CEC_StartOfMessage
                0x00000000        0xc Libraries\STM32F10x_StdPeriph_Driver\src\stm32f10x_cec.o
 .text.CEC_EndOfMessageCmd
                0x00000000        0xc Libraries\STM32F10x_StdPeriph_Driver\src\stm32f10x_cec.o
 .text.CEC_GetFlagStatus
                0x00000000       0x24 Libraries\STM32F10x_StdPeriph_Driver\src\stm32f10x_cec.o
 .text.CEC_ClearFlag
                0x00000000       0x1c Libraries\STM32F10x_StdPeriph_Driver\src\stm32f10x_cec.o
 .text.CEC_GetITStatus
                0x00000000       0x14 Libraries\STM32F10x_StdPeriph_Driver\src\stm32f10x_cec.o
 .text.CEC_ClearITPendingBit
                0x00000000       0x1c Libraries\STM32F10x_StdPeriph_Driver\src\stm32f10x_cec.o
 .debug_info    0x00000000      0x47c Libraries\STM32F10x_StdPeriph_Driver\src\stm32f10x_cec.o
 .debug_abbrev  0x00000000      0x201 Libraries\STM32F10x_StdPeriph_Driver\src\stm32f10x_cec.o
 .debug_loc     0x00000000      0x1ed Libraries\STM32F10x_StdPeriph_Driver\src\stm32f10x_cec.o
 .debug_aranges
                0x00000000       0x88 Libraries\STM32F10x_StdPeriph_Driver\src\stm32f10x_cec.o
 .debug_ranges  0x00000000       0x78 Libraries\STM32F10x_StdPeriph_Driver\src\stm32f10x_cec.o
 .debug_line    0x00000000      0x336 Libraries\STM32F10x_StdPeriph_Driver\src\stm32f10x_cec.o
 .debug_str     0x00000000      0x417 Libraries\STM32F10x_StdPeriph_Driver\src\stm32f10x_cec.o
 .comment       0x00000000       0x7d Libraries\STM32F10x_StdPeriph_Driver\src\stm32f10x_cec.o
 .debug_frame   0x00000000       0xfc Libraries\STM32F10x_StdPeriph_Driver\src\stm32f10x_cec.o
 .ARM.attributes
                0x00000000       0x2f Libraries\STM32F10x_StdPeriph_Driver\src\stm32f10x_cec.o
 .text          0x00000000        0x0 Libraries\STM32F10x_StdPeriph_Driver\src\stm32f10x_crc.o
 .data          0x00000000        0x0 Libraries\STM32F10x_StdPeriph_Driver\src\stm32f10x_crc.o
 .bss           0x00000000        0x0 Libraries\STM32F10x_StdPeriph_Driver\src\stm32f10x_crc.o
 .text.CRC_ResetDR
                0x00000000        0xc Libraries\STM32F10x_StdPeriph_Driver\src\stm32f10x_crc.o
 .text.CRC_CalcCRC
                0x00000000        0xc Libraries\STM32F10x_StdPeriph_Driver\src\stm32f10x_crc.o
 .text.CRC_CalcBlockCRC
                0x00000000       0x1c Libraries\STM32F10x_StdPeriph_Driver\src\stm32f10x_crc.o
 .text.CRC_GetCRC
                0x00000000        0xc Libraries\STM32F10x_StdPeriph_Driver\src\stm32f10x_crc.o
 .text.CRC_SetIDRegister
                0x00000000        0xc Libraries\STM32F10x_StdPeriph_Driver\src\stm32f10x_crc.o
 .text.CRC_GetIDRegister
                0x00000000        0xc Libraries\STM32F10x_StdPeriph_Driver\src\stm32f10x_crc.o
 .debug_info    0x00000000      0x21a Libraries\STM32F10x_StdPeriph_Driver\src\stm32f10x_crc.o
 .debug_abbrev  0x00000000      0x136 Libraries\STM32F10x_StdPeriph_Driver\src\stm32f10x_crc.o
 .debug_loc     0x00000000       0x75 Libraries\STM32F10x_StdPeriph_Driver\src\stm32f10x_crc.o
 .debug_aranges
                0x00000000       0x48 Libraries\STM32F10x_StdPeriph_Driver\src\stm32f10x_crc.o
 .debug_ranges  0x00000000       0x38 Libraries\STM32F10x_StdPeriph_Driver\src\stm32f10x_crc.o
 .debug_line    0x00000000      0x241 Libraries\STM32F10x_StdPeriph_Driver\src\stm32f10x_crc.o
 .debug_str     0x00000000      0x2c5 Libraries\STM32F10x_StdPeriph_Driver\src\stm32f10x_crc.o
 .comment       0x00000000       0x7d Libraries\STM32F10x_StdPeriph_Driver\src\stm32f10x_crc.o
 .debug_frame   0x00000000       0x70 Libraries\STM32F10x_StdPeriph_Driver\src\stm32f10x_crc.o
 .ARM.attributes
                0x00000000       0x2f Libraries\STM32F10x_StdPeriph_Driver\src\stm32f10x_crc.o
 .text          0x00000000        0x0 Libraries\STM32F10x_StdPeriph_Driver\src\stm32f10x_dac.o
 .data          0x00000000        0x0 Libraries\STM32F10x_StdPeriph_Driver\src\stm32f10x_dac.o
 .bss           0x00000000        0x0 Libraries\STM32F10x_StdPeriph_Driver\src\stm32f10x_dac.o
 .text.DAC_DeInit
                0x00000000       0x1c Libraries\STM32F10x_StdPeriph_Driver\src\stm32f10x_dac.o
 .text.DAC_Init
                0x00000000       0x30 Libraries\STM32F10x_StdPeriph_Driver\src\stm32f10x_dac.o
 .text.DAC_StructInit
                0x00000000        0xc Libraries\STM32F10x_StdPeriph_Driver\src\stm32f10x_dac.o
 .text.DAC_Cmd  0x00000000       0x28 Libraries\STM32F10x_StdPeriph_Driver\src\stm32f10x_dac.o
 .text.DAC_DMACmd
                0x00000000       0x2c Libraries\STM32F10x_StdPeriph_Driver\src\stm32f10x_dac.o
 .text.DAC_SoftwareTriggerCmd
                0x00000000       0x2c Libraries\STM32F10x_StdPeriph_Driver\src\stm32f10x_dac.o
 .text.DAC_DualSoftwareTriggerCmd
                0x00000000       0x1c Libraries\STM32F10x_StdPeriph_Driver\src\stm32f10x_dac.o
 .text.DAC_WaveGenerationCmd
                0x00000000       0x1c Libraries\STM32F10x_StdPeriph_Driver\src\stm32f10x_dac.o
 .text.DAC_SetChannel1Data
                0x00000000       0x20 Libraries\STM32F10x_StdPeriph_Driver\src\stm32f10x_dac.o
 .text.DAC_SetChannel2Data
                0x00000000       0x20 Libraries\STM32F10x_StdPeriph_Driver\src\stm32f10x_dac.o
 .text.DAC_SetDualChannelData
                0x00000000       0x18 Libraries\STM32F10x_StdPeriph_Driver\src\stm32f10x_dac.o
 .text.DAC_GetDataOutputValue
                0x00000000       0x24 Libraries\STM32F10x_StdPeriph_Driver\src\stm32f10x_dac.o
 .debug_info    0x00000000      0x50f Libraries\STM32F10x_StdPeriph_Driver\src\stm32f10x_dac.o
 .debug_abbrev  0x00000000      0x1d5 Libraries\STM32F10x_StdPeriph_Driver\src\stm32f10x_dac.o
 .debug_loc     0x00000000      0x2bf Libraries\STM32F10x_StdPeriph_Driver\src\stm32f10x_dac.o
 .debug_aranges
                0x00000000       0x78 Libraries\STM32F10x_StdPeriph_Driver\src\stm32f10x_dac.o
 .debug_ranges  0x00000000       0x68 Libraries\STM32F10x_StdPeriph_Driver\src\stm32f10x_dac.o
 .debug_line    0x00000000      0x332 Libraries\STM32F10x_StdPeriph_Driver\src\stm32f10x_dac.o
 .debug_str     0x00000000      0x450 Libraries\STM32F10x_StdPeriph_Driver\src\stm32f10x_dac.o
 .comment       0x00000000       0x7d Libraries\STM32F10x_StdPeriph_Driver\src\stm32f10x_dac.o
 .debug_frame   0x00000000      0x104 Libraries\STM32F10x_StdPeriph_Driver\src\stm32f10x_dac.o
 .ARM.attributes
                0x00000000       0x2f Libraries\STM32F10x_StdPeriph_Driver\src\stm32f10x_dac.o
 .text          0x00000000        0x0 Libraries\STM32F10x_StdPeriph_Driver\src\stm32f10x_dbgmcu.o
 .data          0x00000000        0x0 Libraries\STM32F10x_StdPeriph_Driver\src\stm32f10x_dbgmcu.o
 .bss           0x00000000        0x0 Libraries\STM32F10x_StdPeriph_Driver\src\stm32f10x_dbgmcu.o
 .text.DBGMCU_GetREVID
                0x00000000        0xc Libraries\STM32F10x_StdPeriph_Driver\src\stm32f10x_dbgmcu.o
 .text.DBGMCU_GetDEVID
                0x00000000       0x10 Libraries\STM32F10x_StdPeriph_Driver\src\stm32f10x_dbgmcu.o
 .text.DBGMCU_Config
                0x00000000       0x18 Libraries\STM32F10x_StdPeriph_Driver\src\stm32f10x_dbgmcu.o
 .debug_info    0x00000000      0x171 Libraries\STM32F10x_StdPeriph_Driver\src\stm32f10x_dbgmcu.o
 .debug_abbrev  0x00000000      0x102 Libraries\STM32F10x_StdPeriph_Driver\src\stm32f10x_dbgmcu.o
 .debug_loc     0x00000000       0x3a Libraries\STM32F10x_StdPeriph_Driver\src\stm32f10x_dbgmcu.o
 .debug_aranges
                0x00000000       0x30 Libraries\STM32F10x_StdPeriph_Driver\src\stm32f10x_dbgmcu.o
 .debug_ranges  0x00000000       0x20 Libraries\STM32F10x_StdPeriph_Driver\src\stm32f10x_dbgmcu.o
 .debug_line    0x00000000      0x1f9 Libraries\STM32F10x_StdPeriph_Driver\src\stm32f10x_dbgmcu.o
 .debug_str     0x00000000      0x27c Libraries\STM32F10x_StdPeriph_Driver\src\stm32f10x_dbgmcu.o
 .comment       0x00000000       0x7d Libraries\STM32F10x_StdPeriph_Driver\src\stm32f10x_dbgmcu.o
 .debug_frame   0x00000000       0x40 Libraries\STM32F10x_StdPeriph_Driver\src\stm32f10x_dbgmcu.o
 .ARM.attributes
                0x00000000       0x2f Libraries\STM32F10x_StdPeriph_Driver\src\stm32f10x_dbgmcu.o
 .text          0x00000000        0x0 Libraries\STM32F10x_StdPeriph_Driver\src\stm32f10x_dma.o
 .data          0x00000000        0x0 Libraries\STM32F10x_StdPeriph_Driver\src\stm32f10x_dma.o
 .bss           0x00000000        0x0 Libraries\STM32F10x_StdPeriph_Driver\src\stm32f10x_dma.o
 .text.DMA_DeInit
                0x00000000      0x12c Libraries\STM32F10x_StdPeriph_Driver\src\stm32f10x_dma.o
 .text.DMA_Init
                0x00000000       0x40 Libraries\STM32F10x_StdPeriph_Driver\src\stm32f10x_dma.o
 .text.DMA_StructInit
                0x00000000       0x1c Libraries\STM32F10x_StdPeriph_Driver\src\stm32f10x_dma.o
 .text.DMA_Cmd  0x00000000       0x18 Libraries\STM32F10x_StdPeriph_Driver\src\stm32f10x_dma.o
 .text.DMA_ITConfig
                0x00000000       0x14 Libraries\STM32F10x_StdPeriph_Driver\src\stm32f10x_dma.o
 .text.DMA_SetCurrDataCounter
                0x00000000        0x4 Libraries\STM32F10x_StdPeriph_Driver\src\stm32f10x_dma.o
 .text.DMA_GetCurrDataCounter
                0x00000000        0x8 Libraries\STM32F10x_StdPeriph_Driver\src\stm32f10x_dma.o
 .text.DMA_GetFlagStatus
                0x00000000       0x1c Libraries\STM32F10x_StdPeriph_Driver\src\stm32f10x_dma.o
 .text.DMA_ClearFlag
                0x00000000       0x14 Libraries\STM32F10x_StdPeriph_Driver\src\stm32f10x_dma.o
 .text.DMA_GetITStatus
                0x00000000       0x1c Libraries\STM32F10x_StdPeriph_Driver\src\stm32f10x_dma.o
 .text.DMA_ClearITPendingBit
                0x00000000       0x14 Libraries\STM32F10x_StdPeriph_Driver\src\stm32f10x_dma.o
 .debug_info    0x00000000      0x48d Libraries\STM32F10x_StdPeriph_Driver\src\stm32f10x_dma.o
 .debug_abbrev  0x00000000      0x21c Libraries\STM32F10x_StdPeriph_Driver\src\stm32f10x_dma.o
 .debug_loc     0x00000000      0x12a Libraries\STM32F10x_StdPeriph_Driver\src\stm32f10x_dma.o
 .debug_aranges
                0x00000000       0x60 Libraries\STM32F10x_StdPeriph_Driver\src\stm32f10x_dma.o
 .debug_ranges  0x00000000       0x50 Libraries\STM32F10x_StdPeriph_Driver\src\stm32f10x_dma.o
 .debug_line    0x00000000      0x31c Libraries\STM32F10x_StdPeriph_Driver\src\stm32f10x_dma.o
 .debug_str     0x00000000      0x441 Libraries\STM32F10x_StdPeriph_Driver\src\stm32f10x_dma.o
 .comment       0x00000000       0x7d Libraries\STM32F10x_StdPeriph_Driver\src\stm32f10x_dma.o
 .debug_frame   0x00000000       0xe0 Libraries\STM32F10x_StdPeriph_Driver\src\stm32f10x_dma.o
 .ARM.attributes
                0x00000000       0x2f Libraries\STM32F10x_StdPeriph_Driver\src\stm32f10x_dma.o
 .text          0x00000000        0x0 Libraries\STM32F10x_StdPeriph_Driver\src\stm32f10x_exti.o
 .data          0x00000000        0x0 Libraries\STM32F10x_StdPeriph_Driver\src\stm32f10x_exti.o
 .bss           0x00000000        0x0 Libraries\STM32F10x_StdPeriph_Driver\src\stm32f10x_exti.o
 .text.EXTI_DeInit
                0x00000000       0x1c Libraries\STM32F10x_StdPeriph_Driver\src\stm32f10x_exti.o
 .text.EXTI_StructInit
                0x00000000       0x10 Libraries\STM32F10x_StdPeriph_Driver\src\stm32f10x_exti.o
 .text.EXTI_GenerateSWInterrupt
                0x00000000       0x10 Libraries\STM32F10x_StdPeriph_Driver\src\stm32f10x_exti.o
 .text.EXTI_GetFlagStatus
                0x00000000       0x14 Libraries\STM32F10x_StdPeriph_Driver\src\stm32f10x_exti.o
 .text.EXTI_ClearFlag
                0x00000000        0xc Libraries\STM32F10x_StdPeriph_Driver\src\stm32f10x_exti.o
 .text          0x00000000        0x0 Libraries\STM32F10x_StdPeriph_Driver\src\stm32f10x_flash.o
 .data          0x00000000        0x0 Libraries\STM32F10x_StdPeriph_Driver\src\stm32f10x_flash.o
 .bss           0x00000000        0x0 Libraries\STM32F10x_StdPeriph_Driver\src\stm32f10x_flash.o
 .text.FLASH_SetLatency
                0x00000000       0x14 Libraries\STM32F10x_StdPeriph_Driver\src\stm32f10x_flash.o
 .text.FLASH_HalfCycleAccessCmd
                0x00000000       0x18 Libraries\STM32F10x_StdPeriph_Driver\src\stm32f10x_flash.o
 .text.FLASH_PrefetchBufferCmd
                0x00000000       0x18 Libraries\STM32F10x_StdPeriph_Driver\src\stm32f10x_flash.o
 .text.FLASH_UnlockBank1
                0x00000000       0x18 Libraries\STM32F10x_StdPeriph_Driver\src\stm32f10x_flash.o
 .text.FLASH_Lock
                0x00000000       0x10 Libraries\STM32F10x_StdPeriph_Driver\src\stm32f10x_flash.o
 .text.FLASH_LockBank1
                0x00000000       0x10 Libraries\STM32F10x_StdPeriph_Driver\src\stm32f10x_flash.o
 .text.FLASH_EraseAllPages
                0x00000000       0xe8 Libraries\STM32F10x_StdPeriph_Driver\src\stm32f10x_flash.o
 .text.FLASH_EraseAllBank1Pages
                0x00000000       0xe8 Libraries\STM32F10x_StdPeriph_Driver\src\stm32f10x_flash.o
 .text.FLASH_EraseOptionBytes
                0x00000000      0x194 Libraries\STM32F10x_StdPeriph_Driver\src\stm32f10x_flash.o
 .text.FLASH_ProgramWord
                0x00000000      0x154 Libraries\STM32F10x_StdPeriph_Driver\src\stm32f10x_flash.o
 .text.FLASH_ProgramOptionByteData
                0x00000000       0xfc Libraries\STM32F10x_StdPeriph_Driver\src\stm32f10x_flash.o
 .text.FLASH_EnableWriteProtection
                0x00000000      0x22c Libraries\STM32F10x_StdPeriph_Driver\src\stm32f10x_flash.o
 .text.FLASH_ReadOutProtection
                0x00000000      0x190 Libraries\STM32F10x_StdPeriph_Driver\src\stm32f10x_flash.o
 .text.FLASH_UserOptionByteConfig
                0x00000000      0x108 Libraries\STM32F10x_StdPeriph_Driver\src\stm32f10x_flash.o
 .text.FLASH_GetUserOptionByte
                0x00000000        0xc Libraries\STM32F10x_StdPeriph_Driver\src\stm32f10x_flash.o
 .text.FLASH_GetWriteProtectionOptionByte
                0x00000000        0xc Libraries\STM32F10x_StdPeriph_Driver\src\stm32f10x_flash.o
 .text.FLASH_GetReadOutProtectionStatus
                0x00000000       0x10 Libraries\STM32F10x_StdPeriph_Driver\src\stm32f10x_flash.o
 .text.FLASH_GetPrefetchBufferStatus
                0x00000000       0x10 Libraries\STM32F10x_StdPeriph_Driver\src\stm32f10x_flash.o
 .text.FLASH_ITConfig
                0x00000000       0x18 Libraries\STM32F10x_StdPeriph_Driver\src\stm32f10x_flash.o
 .text.FLASH_GetFlagStatus
                0x00000000       0x20 Libraries\STM32F10x_StdPeriph_Driver\src\stm32f10x_flash.o
 .text.FLASH_ClearFlag
                0x00000000        0xc Libraries\STM32F10x_StdPeriph_Driver\src\stm32f10x_flash.o
 .text.FLASH_GetStatus
                0x00000000       0x28 Libraries\STM32F10x_StdPeriph_Driver\src\stm32f10x_flash.o
 .text.FLASH_GetBank1Status
                0x00000000       0x28 Libraries\STM32F10x_StdPeriph_Driver\src\stm32f10x_flash.o
 .text.FLASH_WaitForLastOperation
                0x00000000       0x68 Libraries\STM32F10x_StdPeriph_Driver\src\stm32f10x_flash.o
 .text.FLASH_WaitForLastBank1Operation
                0x00000000       0x68 Libraries\STM32F10x_StdPeriph_Driver\src\stm32f10x_flash.o
 .text          0x00000000        0x0 Libraries\STM32F10x_StdPeriph_Driver\src\stm32f10x_fsmc.o
 .data          0x00000000        0x0 Libraries\STM32F10x_StdPeriph_Driver\src\stm32f10x_fsmc.o
 .bss           0x00000000        0x0 Libraries\STM32F10x_StdPeriph_Driver\src\stm32f10x_fsmc.o
 .text.FSMC_NORSRAMDeInit
                0x00000000       0x28 Libraries\STM32F10x_StdPeriph_Driver\src\stm32f10x_fsmc.o
 .text.FSMC_NANDDeInit
                0x00000000       0x28 Libraries\STM32F10x_StdPeriph_Driver\src\stm32f10x_fsmc.o
 .text.FSMC_PCCARDDeInit
                0x00000000       0x1c Libraries\STM32F10x_StdPeriph_Driver\src\stm32f10x_fsmc.o
 .text.FSMC_NORSRAMInit
                0x00000000       0xac Libraries\STM32F10x_StdPeriph_Driver\src\stm32f10x_fsmc.o
 .text.FSMC_NANDInit
                0x00000000       0x6c Libraries\STM32F10x_StdPeriph_Driver\src\stm32f10x_fsmc.o
 .text.FSMC_PCCARDInit
                0x00000000       0x68 Libraries\STM32F10x_StdPeriph_Driver\src\stm32f10x_fsmc.o
 .text.FSMC_NORSRAMStructInit
                0x00000000       0x50 Libraries\STM32F10x_StdPeriph_Driver\src\stm32f10x_fsmc.o
 .text.FSMC_NANDStructInit
                0x00000000       0x30 Libraries\STM32F10x_StdPeriph_Driver\src\stm32f10x_fsmc.o
 .text.FSMC_PCCARDStructInit
                0x00000000       0x30 Libraries\STM32F10x_StdPeriph_Driver\src\stm32f10x_fsmc.o
 .text.FSMC_NORSRAMCmd
                0x00000000       0x20 Libraries\STM32F10x_StdPeriph_Driver\src\stm32f10x_fsmc.o
 .text.FSMC_NANDCmd
                0x00000000       0x34 Libraries\STM32F10x_StdPeriph_Driver\src\stm32f10x_fsmc.o
 .text.FSMC_PCCARDCmd
                0x00000000       0x20 Libraries\STM32F10x_StdPeriph_Driver\src\stm32f10x_fsmc.o
 .text.FSMC_NANDECCCmd
                0x00000000       0x34 Libraries\STM32F10x_StdPeriph_Driver\src\stm32f10x_fsmc.o
 .text.FSMC_GetECC
                0x00000000       0x14 Libraries\STM32F10x_StdPeriph_Driver\src\stm32f10x_fsmc.o
 .text.FSMC_ITConfig
                0x00000000       0x54 Libraries\STM32F10x_StdPeriph_Driver\src\stm32f10x_fsmc.o
 .text.FSMC_GetFlagStatus
                0x00000000       0x2c Libraries\STM32F10x_StdPeriph_Driver\src\stm32f10x_fsmc.o
 .text.FSMC_ClearFlag
                0x00000000       0x30 Libraries\STM32F10x_StdPeriph_Driver\src\stm32f10x_fsmc.o
 .text.FSMC_GetITStatus
                0x00000000       0x34 Libraries\STM32F10x_StdPeriph_Driver\src\stm32f10x_fsmc.o
 .text.FSMC_ClearITPendingBit
                0x00000000       0x30 Libraries\STM32F10x_StdPeriph_Driver\src\stm32f10x_fsmc.o
 .debug_info    0x00000000      0x914 Libraries\STM32F10x_StdPeriph_Driver\src\stm32f10x_fsmc.o
 .debug_abbrev  0x00000000      0x1ac Libraries\STM32F10x_StdPeriph_Driver\src\stm32f10x_fsmc.o
 .debug_loc     0x00000000      0x48a Libraries\STM32F10x_StdPeriph_Driver\src\stm32f10x_fsmc.o
 .debug_aranges
                0x00000000       0xb0 Libraries\STM32F10x_StdPeriph_Driver\src\stm32f10x_fsmc.o
 .debug_ranges  0x00000000       0xa0 Libraries\STM32F10x_StdPeriph_Driver\src\stm32f10x_fsmc.o
 .debug_line    0x00000000      0x4c3 Libraries\STM32F10x_StdPeriph_Driver\src\stm32f10x_fsmc.o
 .debug_str     0x00000000      0x804 Libraries\STM32F10x_StdPeriph_Driver\src\stm32f10x_fsmc.o
 .comment       0x00000000       0x7d Libraries\STM32F10x_StdPeriph_Driver\src\stm32f10x_fsmc.o
 .debug_frame   0x00000000      0x1a0 Libraries\STM32F10x_StdPeriph_Driver\src\stm32f10x_fsmc.o
 .ARM.attributes
                0x00000000       0x2f Libraries\STM32F10x_StdPeriph_Driver\src\stm32f10x_fsmc.o
 .text          0x00000000        0x0 Libraries\STM32F10x_StdPeriph_Driver\src\stm32f10x_gpio.o
 .data          0x00000000        0x0 Libraries\STM32F10x_StdPeriph_Driver\src\stm32f10x_gpio.o
 .bss           0x00000000        0x0 Libraries\STM32F10x_StdPeriph_Driver\src\stm32f10x_gpio.o
 .text.GPIO_DeInit
                0x00000000       0xdc Libraries\STM32F10x_StdPeriph_Driver\src\stm32f10x_gpio.o
 .text.GPIO_AFIODeInit
                0x00000000       0x18 Libraries\STM32F10x_StdPeriph_Driver\src\stm32f10x_gpio.o
 .text.GPIO_StructInit
                0x00000000       0x10 Libraries\STM32F10x_StdPeriph_Driver\src\stm32f10x_gpio.o
 .text.GPIO_ReadInputDataBit
                0x00000000        0xc Libraries\STM32F10x_StdPeriph_Driver\src\stm32f10x_gpio.o
 .text.GPIO_ReadOutputDataBit
                0x00000000        0xc Libraries\STM32F10x_StdPeriph_Driver\src\stm32f10x_gpio.o
 .text.GPIO_Write
                0x00000000        0x4 Libraries\STM32F10x_StdPeriph_Driver\src\stm32f10x_gpio.o
 .text.GPIO_PinLockConfig
                0x00000000       0x10 Libraries\STM32F10x_StdPeriph_Driver\src\stm32f10x_gpio.o
 .text.GPIO_EventOutputConfig
                0x00000000       0x1c Libraries\STM32F10x_StdPeriph_Driver\src\stm32f10x_gpio.o
 .text.GPIO_EventOutputCmd
                0x00000000        0xc Libraries\STM32F10x_StdPeriph_Driver\src\stm32f10x_gpio.o
 .text.GPIO_ETH_MediaInterfaceConfig
                0x00000000        0xc Libraries\STM32F10x_StdPeriph_Driver\src\stm32f10x_gpio.o
 .text          0x00000000        0x0 Libraries\STM32F10x_StdPeriph_Driver\src\stm32f10x_i2c.o
 .data          0x00000000        0x0 Libraries\STM32F10x_StdPeriph_Driver\src\stm32f10x_i2c.o
 .bss           0x00000000        0x0 Libraries\STM32F10x_StdPeriph_Driver\src\stm32f10x_i2c.o
 .text.I2C_DeInit
                0x00000000       0x3c Libraries\STM32F10x_StdPeriph_Driver\src\stm32f10x_i2c.o
 .text.I2C_Init
                0x00000000       0xe0 Libraries\STM32F10x_StdPeriph_Driver\src\stm32f10x_i2c.o
 .text.I2C_StructInit
                0x00000000       0x20 Libraries\STM32F10x_StdPeriph_Driver\src\stm32f10x_i2c.o
 .text.I2C_Cmd  0x00000000       0x1c Libraries\STM32F10x_StdPeriph_Driver\src\stm32f10x_i2c.o
 .text.I2C_DMACmd
                0x00000000       0x1c Libraries\STM32F10x_StdPeriph_Driver\src\stm32f10x_i2c.o
 .text.I2C_DMALastTransferCmd
                0x00000000       0x1c Libraries\STM32F10x_StdPeriph_Driver\src\stm32f10x_i2c.o
 .text.I2C_GenerateSTART
                0x00000000       0x1c Libraries\STM32F10x_StdPeriph_Driver\src\stm32f10x_i2c.o
 .text.I2C_GenerateSTOP
                0x00000000       0x1c Libraries\STM32F10x_StdPeriph_Driver\src\stm32f10x_i2c.o
 .text.I2C_AcknowledgeConfig
                0x00000000       0x1c Libraries\STM32F10x_StdPeriph_Driver\src\stm32f10x_i2c.o
 .text.I2C_OwnAddress2Config
                0x00000000       0x14 Libraries\STM32F10x_StdPeriph_Driver\src\stm32f10x_i2c.o
 .text.I2C_DualAddressCmd
                0x00000000       0x1c Libraries\STM32F10x_StdPeriph_Driver\src\stm32f10x_i2c.o
 .text.I2C_GeneralCallCmd
                0x00000000       0x1c Libraries\STM32F10x_StdPeriph_Driver\src\stm32f10x_i2c.o
 .text.I2C_ITConfig
                0x00000000       0x14 Libraries\STM32F10x_StdPeriph_Driver\src\stm32f10x_i2c.o
 .text.I2C_SendData
                0x00000000        0x4 Libraries\STM32F10x_StdPeriph_Driver\src\stm32f10x_i2c.o
 .text.I2C_ReceiveData
                0x00000000        0x8 Libraries\STM32F10x_StdPeriph_Driver\src\stm32f10x_i2c.o
 .text.I2C_Send7bitAddress
                0x00000000       0x18 Libraries\STM32F10x_StdPeriph_Driver\src\stm32f10x_i2c.o
 .text.I2C_ReadRegister
                0x00000000       0x18 Libraries\STM32F10x_StdPeriph_Driver\src\stm32f10x_i2c.o
 .text.I2C_SoftwareResetCmd
                0x00000000       0x1c Libraries\STM32F10x_StdPeriph_Driver\src\stm32f10x_i2c.o
 .text.I2C_NACKPositionConfig
                0x00000000       0x20 Libraries\STM32F10x_StdPeriph_Driver\src\stm32f10x_i2c.o
 .text.I2C_SMBusAlertConfig
                0x00000000       0x20 Libraries\STM32F10x_StdPeriph_Driver\src\stm32f10x_i2c.o
 .text.I2C_TransmitPEC
                0x00000000       0x1c Libraries\STM32F10x_StdPeriph_Driver\src\stm32f10x_i2c.o
 .text.I2C_PECPositionConfig
                0x00000000       0x20 Libraries\STM32F10x_StdPeriph_Driver\src\stm32f10x_i2c.o
 .text.I2C_CalculatePEC
                0x00000000       0x1c Libraries\STM32F10x_StdPeriph_Driver\src\stm32f10x_i2c.o
 .text.I2C_GetPEC
                0x00000000        0x8 Libraries\STM32F10x_StdPeriph_Driver\src\stm32f10x_i2c.o
 .text.I2C_ARPCmd
                0x00000000       0x1c Libraries\STM32F10x_StdPeriph_Driver\src\stm32f10x_i2c.o
 .text.I2C_StretchClockCmd
                0x00000000       0x1c Libraries\STM32F10x_StdPeriph_Driver\src\stm32f10x_i2c.o
 .text.I2C_FastModeDutyCycleConfig
                0x00000000       0x20 Libraries\STM32F10x_StdPeriph_Driver\src\stm32f10x_i2c.o
 .text.I2C_CheckEvent
                0x00000000       0x1c Libraries\STM32F10x_StdPeriph_Driver\src\stm32f10x_i2c.o
 .text.I2C_GetLastEvent
                0x00000000       0x10 Libraries\STM32F10x_StdPeriph_Driver\src\stm32f10x_i2c.o
 .text.I2C_GetFlagStatus
                0x00000000       0x38 Libraries\STM32F10x_StdPeriph_Driver\src\stm32f10x_i2c.o
 .text.I2C_ClearFlag
                0x00000000        0x8 Libraries\STM32F10x_StdPeriph_Driver\src\stm32f10x_i2c.o
 .text.I2C_GetITStatus
                0x00000000       0x1c Libraries\STM32F10x_StdPeriph_Driver\src\stm32f10x_i2c.o
 .text.I2C_ClearITPendingBit
                0x00000000        0x8 Libraries\STM32F10x_StdPeriph_Driver\src\stm32f10x_i2c.o
 .debug_info    0x00000000      0xba5 Libraries\STM32F10x_StdPeriph_Driver\src\stm32f10x_i2c.o
 .debug_abbrev  0x00000000      0x264 Libraries\STM32F10x_StdPeriph_Driver\src\stm32f10x_i2c.o
 .debug_loc     0x00000000      0x65d Libraries\STM32F10x_StdPeriph_Driver\src\stm32f10x_i2c.o
 .debug_aranges
                0x00000000      0x110 Libraries\STM32F10x_StdPeriph_Driver\src\stm32f10x_i2c.o
 .debug_ranges  0x00000000      0x100 Libraries\STM32F10x_StdPeriph_Driver\src\stm32f10x_i2c.o
 .debug_line    0x00000000      0x512 Libraries\STM32F10x_StdPeriph_Driver\src\stm32f10x_i2c.o
 .debug_str     0x00000000      0x719 Libraries\STM32F10x_StdPeriph_Driver\src\stm32f10x_i2c.o
 .comment       0x00000000       0x7d Libraries\STM32F10x_StdPeriph_Driver\src\stm32f10x_i2c.o
 .debug_frame   0x00000000      0x26c Libraries\STM32F10x_StdPeriph_Driver\src\stm32f10x_i2c.o
 .ARM.attributes
                0x00000000       0x2f Libraries\STM32F10x_StdPeriph_Driver\src\stm32f10x_i2c.o
 .text          0x00000000        0x0 Libraries\STM32F10x_StdPeriph_Driver\src\stm32f10x_iwdg.o
 .data          0x00000000        0x0 Libraries\STM32F10x_StdPeriph_Driver\src\stm32f10x_iwdg.o
 .bss           0x00000000        0x0 Libraries\STM32F10x_StdPeriph_Driver\src\stm32f10x_iwdg.o
 .text.IWDG_WriteAccessCmd
                0x00000000        0xc Libraries\STM32F10x_StdPeriph_Driver\src\stm32f10x_iwdg.o
 .text.IWDG_SetPrescaler
                0x00000000        0xc Libraries\STM32F10x_StdPeriph_Driver\src\stm32f10x_iwdg.o
 .text.IWDG_SetReload
                0x00000000        0xc Libraries\STM32F10x_StdPeriph_Driver\src\stm32f10x_iwdg.o
 .text.IWDG_ReloadCounter
                0x00000000       0x10 Libraries\STM32F10x_StdPeriph_Driver\src\stm32f10x_iwdg.o
 .text.IWDG_Enable
                0x00000000       0x10 Libraries\STM32F10x_StdPeriph_Driver\src\stm32f10x_iwdg.o
 .text.IWDG_GetFlagStatus
                0x00000000       0x14 Libraries\STM32F10x_StdPeriph_Driver\src\stm32f10x_iwdg.o
 .debug_info    0x00000000      0x218 Libraries\STM32F10x_StdPeriph_Driver\src\stm32f10x_iwdg.o
 .debug_abbrev  0x00000000      0x13d Libraries\STM32F10x_StdPeriph_Driver\src\stm32f10x_iwdg.o
 .debug_loc     0x00000000       0x62 Libraries\STM32F10x_StdPeriph_Driver\src\stm32f10x_iwdg.o
 .debug_aranges
                0x00000000       0x48 Libraries\STM32F10x_StdPeriph_Driver\src\stm32f10x_iwdg.o
 .debug_ranges  0x00000000       0x38 Libraries\STM32F10x_StdPeriph_Driver\src\stm32f10x_iwdg.o
 .debug_line    0x00000000      0x228 Libraries\STM32F10x_StdPeriph_Driver\src\stm32f10x_iwdg.o
 .debug_str     0x00000000      0x2e6 Libraries\STM32F10x_StdPeriph_Driver\src\stm32f10x_iwdg.o
 .comment       0x00000000       0x7d Libraries\STM32F10x_StdPeriph_Driver\src\stm32f10x_iwdg.o
 .debug_frame   0x00000000       0x70 Libraries\STM32F10x_StdPeriph_Driver\src\stm32f10x_iwdg.o
 .ARM.attributes
                0x00000000       0x2f Libraries\STM32F10x_StdPeriph_Driver\src\stm32f10x_iwdg.o
 .text          0x00000000        0x0 Libraries\STM32F10x_StdPeriph_Driver\src\stm32f10x_pwr.o
 .data          0x00000000        0x0 Libraries\STM32F10x_StdPeriph_Driver\src\stm32f10x_pwr.o
 .bss           0x00000000        0x0 Libraries\STM32F10x_StdPeriph_Driver\src\stm32f10x_pwr.o
 .text.PWR_DeInit
                0x00000000       0x1c Libraries\STM32F10x_StdPeriph_Driver\src\stm32f10x_pwr.o
 .text.PWR_BackupAccessCmd
                0x00000000        0xc Libraries\STM32F10x_StdPeriph_Driver\src\stm32f10x_pwr.o
 .text.PWR_PVDCmd
                0x00000000        0xc Libraries\STM32F10x_StdPeriph_Driver\src\stm32f10x_pwr.o
 .text.PWR_PVDLevelConfig
                0x00000000       0x14 Libraries\STM32F10x_StdPeriph_Driver\src\stm32f10x_pwr.o
 .text.PWR_WakeUpPinCmd
                0x00000000        0xc Libraries\STM32F10x_StdPeriph_Driver\src\stm32f10x_pwr.o
 .text.PWR_EnterSTOPMode
                0x00000000       0x3c Libraries\STM32F10x_StdPeriph_Driver\src\stm32f10x_pwr.o
 .text.PWR_EnterSTANDBYMode
                0x00000000       0x28 Libraries\STM32F10x_StdPeriph_Driver\src\stm32f10x_pwr.o
 .text.PWR_GetFlagStatus
                0x00000000       0x14 Libraries\STM32F10x_StdPeriph_Driver\src\stm32f10x_pwr.o
 .text.PWR_ClearFlag
                0x00000000       0x10 Libraries\STM32F10x_StdPeriph_Driver\src\stm32f10x_pwr.o
 .debug_info    0x00000000      0x4f2 Libraries\STM32F10x_StdPeriph_Driver\src\stm32f10x_pwr.o
 .debug_abbrev  0x00000000      0x1c3 Libraries\STM32F10x_StdPeriph_Driver\src\stm32f10x_pwr.o
 .debug_loc     0x00000000      0x111 Libraries\STM32F10x_StdPeriph_Driver\src\stm32f10x_pwr.o
 .debug_aranges
                0x00000000       0x60 Libraries\STM32F10x_StdPeriph_Driver\src\stm32f10x_pwr.o
 .debug_ranges  0x00000000       0x50 Libraries\STM32F10x_StdPeriph_Driver\src\stm32f10x_pwr.o
 .debug_line    0x00000000      0x2da Libraries\STM32F10x_StdPeriph_Driver\src\stm32f10x_pwr.o
 .debug_str     0x00000000      0x3c3 Libraries\STM32F10x_StdPeriph_Driver\src\stm32f10x_pwr.o
 .comment       0x00000000       0x7d Libraries\STM32F10x_StdPeriph_Driver\src\stm32f10x_pwr.o
 .debug_frame   0x00000000       0xb8 Libraries\STM32F10x_StdPeriph_Driver\src\stm32f10x_pwr.o
 .ARM.attributes
                0x00000000       0x2f Libraries\STM32F10x_StdPeriph_Driver\src\stm32f10x_pwr.o
 .text          0x00000000        0x0 Libraries\STM32F10x_StdPeriph_Driver\src\stm32f10x_rcc.o
 .data          0x00000000        0x0 Libraries\STM32F10x_StdPeriph_Driver\src\stm32f10x_rcc.o
 .bss           0x00000000        0x0 Libraries\STM32F10x_StdPeriph_Driver\src\stm32f10x_rcc.o
 .text.RCC_DeInit
                0x00000000       0x40 Libraries\STM32F10x_StdPeriph_Driver\src\stm32f10x_rcc.o
 .text.RCC_HSEConfig
                0x00000000       0x38 Libraries\STM32F10x_StdPeriph_Driver\src\stm32f10x_rcc.o
 .text.RCC_WaitForHSEStartUp
                0x00000000       0x34 Libraries\STM32F10x_StdPeriph_Driver\src\stm32f10x_rcc.o
 .text.RCC_AdjustHSICalibrationValue
                0x00000000       0x14 Libraries\STM32F10x_StdPeriph_Driver\src\stm32f10x_rcc.o
 .text.RCC_HSICmd
                0x00000000        0xc Libraries\STM32F10x_StdPeriph_Driver\src\stm32f10x_rcc.o
 .text.RCC_PLLConfig
                0x00000000       0x14 Libraries\STM32F10x_StdPeriph_Driver\src\stm32f10x_rcc.o
 .text.RCC_PLLCmd
                0x00000000        0xc Libraries\STM32F10x_StdPeriph_Driver\src\stm32f10x_rcc.o
 .text.RCC_SYSCLKConfig
                0x00000000       0x14 Libraries\STM32F10x_StdPeriph_Driver\src\stm32f10x_rcc.o
 .text.RCC_GetSYSCLKSource
                0x00000000       0x10 Libraries\STM32F10x_StdPeriph_Driver\src\stm32f10x_rcc.o
 .text.RCC_HCLKConfig
                0x00000000       0x14 Libraries\STM32F10x_StdPeriph_Driver\src\stm32f10x_rcc.o
 .text.RCC_PCLK1Config
                0x00000000       0x14 Libraries\STM32F10x_StdPeriph_Driver\src\stm32f10x_rcc.o
 .text.RCC_PCLK2Config
                0x00000000       0x14 Libraries\STM32F10x_StdPeriph_Driver\src\stm32f10x_rcc.o
 .text.RCC_ITConfig
                0x00000000       0x18 Libraries\STM32F10x_StdPeriph_Driver\src\stm32f10x_rcc.o
 .text.RCC_ADCCLKConfig
                0x00000000       0x14 Libraries\STM32F10x_StdPeriph_Driver\src\stm32f10x_rcc.o
 .text.RCC_LSEConfig
                0x00000000       0x20 Libraries\STM32F10x_StdPeriph_Driver\src\stm32f10x_rcc.o
 .text.RCC_LSICmd
                0x00000000        0xc Libraries\STM32F10x_StdPeriph_Driver\src\stm32f10x_rcc.o
 .text.RCC_RTCCLKConfig
                0x00000000       0x10 Libraries\STM32F10x_StdPeriph_Driver\src\stm32f10x_rcc.o
 .text.RCC_RTCCLKCmd
                0x00000000        0xc Libraries\STM32F10x_StdPeriph_Driver\src\stm32f10x_rcc.o
 .text.RCC_GetClocksFreq
                0x00000000       0x9c Libraries\STM32F10x_StdPeriph_Driver\src\stm32f10x_rcc.o
 .text.RCC_AHBPeriphClockCmd
                0x00000000       0x18 Libraries\STM32F10x_StdPeriph_Driver\src\stm32f10x_rcc.o
 .text.RCC_APB2PeriphResetCmd
                0x00000000       0x18 Libraries\STM32F10x_StdPeriph_Driver\src\stm32f10x_rcc.o
 .text.RCC_APB1PeriphResetCmd
                0x00000000       0x18 Libraries\STM32F10x_StdPeriph_Driver\src\stm32f10x_rcc.o
 .text.RCC_BackupResetCmd
                0x00000000        0xc Libraries\STM32F10x_StdPeriph_Driver\src\stm32f10x_rcc.o
 .text.RCC_ClockSecuritySystemCmd
                0x00000000        0xc Libraries\STM32F10x_StdPeriph_Driver\src\stm32f10x_rcc.o
 .text.RCC_MCOConfig
                0x00000000        0xc Libraries\STM32F10x_StdPeriph_Driver\src\stm32f10x_rcc.o
 .text.RCC_GetFlagStatus
                0x00000000       0x34 Libraries\STM32F10x_StdPeriph_Driver\src\stm32f10x_rcc.o
 .text.RCC_ClearFlag
                0x00000000       0x10 Libraries\STM32F10x_StdPeriph_Driver\src\stm32f10x_rcc.o
 .text.RCC_GetITStatus
                0x00000000       0x14 Libraries\STM32F10x_StdPeriph_Driver\src\stm32f10x_rcc.o
 .text.RCC_ClearITPendingBit
                0x00000000        0xc Libraries\STM32F10x_StdPeriph_Driver\src\stm32f10x_rcc.o
 .data.ADCPrescTable
                0x00000000        0x4 Libraries\STM32F10x_StdPeriph_Driver\src\stm32f10x_rcc.o
 .data.APBAHBPrescTable
                0x00000000       0x10 Libraries\STM32F10x_StdPeriph_Driver\src\stm32f10x_rcc.o
 .text          0x00000000        0x0 Libraries\STM32F10x_StdPeriph_Driver\src\stm32f10x_rtc.o
 .data          0x00000000        0x0 Libraries\STM32F10x_StdPeriph_Driver\src\stm32f10x_rtc.o
 .bss           0x00000000        0x0 Libraries\STM32F10x_StdPeriph_Driver\src\stm32f10x_rtc.o
 .text.RTC_ITConfig
                0x00000000       0x1c Libraries\STM32F10x_StdPeriph_Driver\src\stm32f10x_rtc.o
 .text.RTC_EnterConfigMode
                0x00000000       0x14 Libraries\STM32F10x_StdPeriph_Driver\src\stm32f10x_rtc.o
 .text.RTC_ExitConfigMode
                0x00000000       0x14 Libraries\STM32F10x_StdPeriph_Driver\src\stm32f10x_rtc.o
 .text.RTC_GetCounter
                0x00000000       0x2c Libraries\STM32F10x_StdPeriph_Driver\src\stm32f10x_rtc.o
 .text.RTC_SetCounter
                0x00000000       0x28 Libraries\STM32F10x_StdPeriph_Driver\src\stm32f10x_rtc.o
 .text.RTC_SetPrescaler
                0x00000000       0x28 Libraries\STM32F10x_StdPeriph_Driver\src\stm32f10x_rtc.o
 .text.RTC_SetAlarm
                0x00000000       0x28 Libraries\STM32F10x_StdPeriph_Driver\src\stm32f10x_rtc.o
 .text.RTC_GetDivider
                0x00000000       0x18 Libraries\STM32F10x_StdPeriph_Driver\src\stm32f10x_rtc.o
 .text.RTC_WaitForLastTask
                0x00000000       0x10 Libraries\STM32F10x_StdPeriph_Driver\src\stm32f10x_rtc.o
 .text.RTC_WaitForSynchro
                0x00000000       0x1c Libraries\STM32F10x_StdPeriph_Driver\src\stm32f10x_rtc.o
 .text.RTC_GetFlagStatus
                0x00000000       0x14 Libraries\STM32F10x_StdPeriph_Driver\src\stm32f10x_rtc.o
 .text.RTC_ClearFlag
                0x00000000       0x14 Libraries\STM32F10x_StdPeriph_Driver\src\stm32f10x_rtc.o
 .text.RTC_GetITStatus
                0x00000000       0x20 Libraries\STM32F10x_StdPeriph_Driver\src\stm32f10x_rtc.o
 .text.RTC_ClearITPendingBit
                0x00000000       0x14 Libraries\STM32F10x_StdPeriph_Driver\src\stm32f10x_rtc.o
 .debug_info    0x00000000      0x4db Libraries\STM32F10x_StdPeriph_Driver\src\stm32f10x_rtc.o
 .debug_abbrev  0x00000000      0x206 Libraries\STM32F10x_StdPeriph_Driver\src\stm32f10x_rtc.o
 .debug_loc     0x00000000      0x241 Libraries\STM32F10x_StdPeriph_Driver\src\stm32f10x_rtc.o
 .debug_aranges
                0x00000000       0x80 Libraries\STM32F10x_StdPeriph_Driver\src\stm32f10x_rtc.o
 .debug_ranges  0x00000000       0xd0 Libraries\STM32F10x_StdPeriph_Driver\src\stm32f10x_rtc.o
 .debug_line    0x00000000      0x31f Libraries\STM32F10x_StdPeriph_Driver\src\stm32f10x_rtc.o
 .debug_str     0x00000000      0x438 Libraries\STM32F10x_StdPeriph_Driver\src\stm32f10x_rtc.o
 .comment       0x00000000       0x7d Libraries\STM32F10x_StdPeriph_Driver\src\stm32f10x_rtc.o
 .debug_frame   0x00000000      0x100 Libraries\STM32F10x_StdPeriph_Driver\src\stm32f10x_rtc.o
 .ARM.attributes
                0x00000000       0x2f Libraries\STM32F10x_StdPeriph_Driver\src\stm32f10x_rtc.o
 .text          0x00000000        0x0 Libraries\STM32F10x_StdPeriph_Driver\src\stm32f10x_sdio.o
 .data          0x00000000        0x0 Libraries\STM32F10x_StdPeriph_Driver\src\stm32f10x_sdio.o
 .bss           0x00000000        0x0 Libraries\STM32F10x_StdPeriph_Driver\src\stm32f10x_sdio.o
 .text.SDIO_DeInit
                0x00000000       0x24 Libraries\STM32F10x_StdPeriph_Driver\src\stm32f10x_sdio.o
 .text.SDIO_Init
                0x00000000       0x30 Libraries\STM32F10x_StdPeriph_Driver\src\stm32f10x_sdio.o
 .text.SDIO_StructInit
                0x00000000       0x10 Libraries\STM32F10x_StdPeriph_Driver\src\stm32f10x_sdio.o
 .text.SDIO_ClockCmd
                0x00000000        0xc Libraries\STM32F10x_StdPeriph_Driver\src\stm32f10x_sdio.o
 .text.SDIO_SetPowerState
                0x00000000        0xc Libraries\STM32F10x_StdPeriph_Driver\src\stm32f10x_sdio.o
 .text.SDIO_GetPowerState
                0x00000000       0x10 Libraries\STM32F10x_StdPeriph_Driver\src\stm32f10x_sdio.o
 .text.SDIO_ITConfig
                0x00000000       0x18 Libraries\STM32F10x_StdPeriph_Driver\src\stm32f10x_sdio.o
 .text.SDIO_DMACmd
                0x00000000        0xc Libraries\STM32F10x_StdPeriph_Driver\src\stm32f10x_sdio.o
 .text.SDIO_SendCommand
                0x00000000       0x2c Libraries\STM32F10x_StdPeriph_Driver\src\stm32f10x_sdio.o
 .text.SDIO_CmdStructInit
                0x00000000       0x10 Libraries\STM32F10x_StdPeriph_Driver\src\stm32f10x_sdio.o
 .text.SDIO_GetCommandResponse
                0x00000000        0xc Libraries\STM32F10x_StdPeriph_Driver\src\stm32f10x_sdio.o
 .text.SDIO_GetResponse
                0x00000000       0x18 Libraries\STM32F10x_StdPeriph_Driver\src\stm32f10x_sdio.o
 .text.SDIO_DataConfig
                0x00000000       0x2c Libraries\STM32F10x_StdPeriph_Driver\src\stm32f10x_sdio.o
 .text.SDIO_DataStructInit
                0x00000000       0x14 Libraries\STM32F10x_StdPeriph_Driver\src\stm32f10x_sdio.o
 .text.SDIO_GetDataCounter
                0x00000000        0xc Libraries\STM32F10x_StdPeriph_Driver\src\stm32f10x_sdio.o
 .text.SDIO_ReadData
                0x00000000        0xc Libraries\STM32F10x_StdPeriph_Driver\src\stm32f10x_sdio.o
 .text.SDIO_WriteData
                0x00000000        0xc Libraries\STM32F10x_StdPeriph_Driver\src\stm32f10x_sdio.o
 .text.SDIO_GetFIFOCount
                0x00000000        0xc Libraries\STM32F10x_StdPeriph_Driver\src\stm32f10x_sdio.o
 .text.SDIO_StartSDIOReadWait
                0x00000000        0xc Libraries\STM32F10x_StdPeriph_Driver\src\stm32f10x_sdio.o
 .text.SDIO_StopSDIOReadWait
                0x00000000        0xc Libraries\STM32F10x_StdPeriph_Driver\src\stm32f10x_sdio.o
 .text.SDIO_SetSDIOReadWaitMode
                0x00000000        0xc Libraries\STM32F10x_StdPeriph_Driver\src\stm32f10x_sdio.o
 .text.SDIO_SetSDIOOperation
                0x00000000        0xc Libraries\STM32F10x_StdPeriph_Driver\src\stm32f10x_sdio.o
 .text.SDIO_SendSDIOSuspendCmd
                0x00000000        0xc Libraries\STM32F10x_StdPeriph_Driver\src\stm32f10x_sdio.o
 .text.SDIO_CommandCompletionCmd
                0x00000000        0xc Libraries\STM32F10x_StdPeriph_Driver\src\stm32f10x_sdio.o
 .text.SDIO_CEATAITCmd
                0x00000000       0x10 Libraries\STM32F10x_StdPeriph_Driver\src\stm32f10x_sdio.o
 .text.SDIO_SendCEATACmd
                0x00000000        0xc Libraries\STM32F10x_StdPeriph_Driver\src\stm32f10x_sdio.o
 .text.SDIO_GetFlagStatus
                0x00000000       0x14 Libraries\STM32F10x_StdPeriph_Driver\src\stm32f10x_sdio.o
 .text.SDIO_ClearFlag
                0x00000000        0xc Libraries\STM32F10x_StdPeriph_Driver\src\stm32f10x_sdio.o
 .text.SDIO_GetITStatus
                0x00000000       0x14 Libraries\STM32F10x_StdPeriph_Driver\src\stm32f10x_sdio.o
 .text.SDIO_ClearITPendingBit
                0x00000000        0xc Libraries\STM32F10x_StdPeriph_Driver\src\stm32f10x_sdio.o
 .debug_info    0x00000000      0x7fd Libraries\STM32F10x_StdPeriph_Driver\src\stm32f10x_sdio.o
 .debug_abbrev  0x00000000      0x276 Libraries\STM32F10x_StdPeriph_Driver\src\stm32f10x_sdio.o
 .debug_loc     0x00000000      0x171 Libraries\STM32F10x_StdPeriph_Driver\src\stm32f10x_sdio.o
 .debug_aranges
                0x00000000       0xf8 Libraries\STM32F10x_StdPeriph_Driver\src\stm32f10x_sdio.o
 .debug_ranges  0x00000000       0xe8 Libraries\STM32F10x_StdPeriph_Driver\src\stm32f10x_sdio.o
 .debug_line    0x00000000      0x437 Libraries\STM32F10x_StdPeriph_Driver\src\stm32f10x_sdio.o
 .debug_str     0x00000000      0x6ba Libraries\STM32F10x_StdPeriph_Driver\src\stm32f10x_sdio.o
 .comment       0x00000000       0x7d Libraries\STM32F10x_StdPeriph_Driver\src\stm32f10x_sdio.o
 .debug_frame   0x00000000      0x21c Libraries\STM32F10x_StdPeriph_Driver\src\stm32f10x_sdio.o
 .ARM.attributes
                0x00000000       0x2f Libraries\STM32F10x_StdPeriph_Driver\src\stm32f10x_sdio.o
 .text          0x00000000        0x0 Libraries\STM32F10x_StdPeriph_Driver\src\stm32f10x_spi.o
 .data          0x00000000        0x0 Libraries\STM32F10x_StdPeriph_Driver\src\stm32f10x_spi.o
 .bss           0x00000000        0x0 Libraries\STM32F10x_StdPeriph_Driver\src\stm32f10x_spi.o
 .text.SPI_I2S_DeInit
                0x00000000       0x6c Libraries\STM32F10x_StdPeriph_Driver\src\stm32f10x_spi.o
 .text.SPI_Init
                0x00000000       0x40 Libraries\STM32F10x_StdPeriph_Driver\src\stm32f10x_spi.o
 .text.I2S_Init
                0x00000000       0xac Libraries\STM32F10x_StdPeriph_Driver\src\stm32f10x_spi.o
 .text.SPI_StructInit
                0x00000000       0x18 Libraries\STM32F10x_StdPeriph_Driver\src\stm32f10x_spi.o
 .text.I2S_StructInit
                0x00000000       0x10 Libraries\STM32F10x_StdPeriph_Driver\src\stm32f10x_spi.o
 .text.SPI_Cmd  0x00000000       0x1c Libraries\STM32F10x_StdPeriph_Driver\src\stm32f10x_spi.o
 .text.I2S_Cmd  0x00000000       0x1c Libraries\STM32F10x_StdPeriph_Driver\src\stm32f10x_spi.o
 .text.SPI_I2S_ITConfig
                0x00000000       0x1c Libraries\STM32F10x_StdPeriph_Driver\src\stm32f10x_spi.o
 .text.SPI_I2S_DMACmd
                0x00000000       0x14 Libraries\STM32F10x_StdPeriph_Driver\src\stm32f10x_spi.o
 .text.SPI_I2S_SendData
                0x00000000        0x4 Libraries\STM32F10x_StdPeriph_Driver\src\stm32f10x_spi.o
 .text.SPI_I2S_ReceiveData
                0x00000000        0x8 Libraries\STM32F10x_StdPeriph_Driver\src\stm32f10x_spi.o
 .text.SPI_NSSInternalSoftwareConfig
                0x00000000       0x20 Libraries\STM32F10x_StdPeriph_Driver\src\stm32f10x_spi.o
 .text.SPI_SSOutputCmd
                0x00000000       0x1c Libraries\STM32F10x_StdPeriph_Driver\src\stm32f10x_spi.o
 .text.SPI_DataSizeConfig
                0x00000000       0x18 Libraries\STM32F10x_StdPeriph_Driver\src\stm32f10x_spi.o
 .text.SPI_TransmitCRC
                0x00000000        0xc Libraries\STM32F10x_StdPeriph_Driver\src\stm32f10x_spi.o
 .text.SPI_CalculateCRC
                0x00000000       0x1c Libraries\STM32F10x_StdPeriph_Driver\src\stm32f10x_spi.o
 .text.SPI_GetCRC
                0x00000000        0xc Libraries\STM32F10x_StdPeriph_Driver\src\stm32f10x_spi.o
 .text.SPI_GetCRCPolynomial
                0x00000000        0x8 Libraries\STM32F10x_StdPeriph_Driver\src\stm32f10x_spi.o
 .text.SPI_BiDirectionalLineConfig
                0x00000000       0x20 Libraries\STM32F10x_StdPeriph_Driver\src\stm32f10x_spi.o
 .text.SPI_I2S_GetFlagStatus
                0x00000000        0xc Libraries\STM32F10x_StdPeriph_Driver\src\stm32f10x_spi.o
 .text.SPI_I2S_ClearFlag
                0x00000000        0x8 Libraries\STM32F10x_StdPeriph_Driver\src\stm32f10x_spi.o
 .text.SPI_I2S_GetITStatus
                0x00000000       0x28 Libraries\STM32F10x_StdPeriph_Driver\src\stm32f10x_spi.o
 .text.SPI_I2S_ClearITPendingBit
                0x00000000       0x10 Libraries\STM32F10x_StdPeriph_Driver\src\stm32f10x_spi.o
 .debug_info    0x00000000      0x9d8 Libraries\STM32F10x_StdPeriph_Driver\src\stm32f10x_spi.o
 .debug_abbrev  0x00000000      0x1f9 Libraries\STM32F10x_StdPeriph_Driver\src\stm32f10x_spi.o
 .debug_loc     0x00000000      0x534 Libraries\STM32F10x_StdPeriph_Driver\src\stm32f10x_spi.o
 .debug_aranges
                0x00000000       0xd0 Libraries\STM32F10x_StdPeriph_Driver\src\stm32f10x_spi.o
 .debug_ranges  0x00000000       0xc0 Libraries\STM32F10x_StdPeriph_Driver\src\stm32f10x_spi.o
 .debug_line    0x00000000      0x46a Libraries\STM32F10x_StdPeriph_Driver\src\stm32f10x_spi.o
 .debug_str     0x00000000      0x6c7 Libraries\STM32F10x_StdPeriph_Driver\src\stm32f10x_spi.o
 .comment       0x00000000       0x7d Libraries\STM32F10x_StdPeriph_Driver\src\stm32f10x_spi.o
 .debug_frame   0x00000000      0x1cc Libraries\STM32F10x_StdPeriph_Driver\src\stm32f10x_spi.o
 .ARM.attributes
                0x00000000       0x2f Libraries\STM32F10x_StdPeriph_Driver\src\stm32f10x_spi.o
 .text          0x00000000        0x0 Libraries\STM32F10x_StdPeriph_Driver\src\stm32f10x_tim.o
 .data          0x00000000        0x0 Libraries\STM32F10x_StdPeriph_Driver\src\stm32f10x_tim.o
 .bss           0x00000000        0x0 Libraries\STM32F10x_StdPeriph_Driver\src\stm32f10x_tim.o
 .text.TIM_DeInit
                0x00000000      0x234 Libraries\STM32F10x_StdPeriph_Driver\src\stm32f10x_tim.o
 .text.TIM_OC2Init
                0x00000000       0x88 Libraries\STM32F10x_StdPeriph_Driver\src\stm32f10x_tim.o
 .text.TIM_OC3Init
                0x00000000       0x84 Libraries\STM32F10x_StdPeriph_Driver\src\stm32f10x_tim.o
 .text.TIM_OC4Init
                0x00000000       0x6c Libraries\STM32F10x_StdPeriph_Driver\src\stm32f10x_tim.o
 .text.TIM_ICInit
                0x00000000      0x248 Libraries\STM32F10x_StdPeriph_Driver\src\stm32f10x_tim.o
 .text.TIM_PWMIConfig
                0x00000000      0x254 Libraries\STM32F10x_StdPeriph_Driver\src\stm32f10x_tim.o
 .text.TIM_BDTRConfig
                0x00000000       0x28 Libraries\STM32F10x_StdPeriph_Driver\src\stm32f10x_tim.o
 .text.TIM_OCStructInit
                0x00000000        0xc Libraries\STM32F10x_StdPeriph_Driver\src\stm32f10x_tim.o
 .text.TIM_ICStructInit
                0x00000000       0x10 Libraries\STM32F10x_StdPeriph_Driver\src\stm32f10x_tim.o
 .text.TIM_BDTRStructInit
                0x00000000       0x14 Libraries\STM32F10x_StdPeriph_Driver\src\stm32f10x_tim.o
 .text.TIM_GenerateEvent
                0x00000000        0x4 Libraries\STM32F10x_StdPeriph_Driver\src\stm32f10x_tim.o
 .text.TIM_DMAConfig
                0x00000000        0x8 Libraries\STM32F10x_StdPeriph_Driver\src\stm32f10x_tim.o
 .text.TIM_DMACmd
                0x00000000       0x14 Libraries\STM32F10x_StdPeriph_Driver\src\stm32f10x_tim.o
 .text.TIM_InternalClockConfig
                0x00000000       0x10 Libraries\STM32F10x_StdPeriph_Driver\src\stm32f10x_tim.o
 .text.TIM_ITRxExternalClockConfig
                0x00000000       0x1c Libraries\STM32F10x_StdPeriph_Driver\src\stm32f10x_tim.o
 .text.TIM_TIxExternalClockConfig
                0x00000000      0x100 Libraries\STM32F10x_StdPeriph_Driver\src\stm32f10x_tim.o
 .text.TIM_ETRClockMode1Config
                0x00000000       0x28 Libraries\STM32F10x_StdPeriph_Driver\src\stm32f10x_tim.o
 .text.TIM_ETRClockMode2Config
                0x00000000       0x20 Libraries\STM32F10x_StdPeriph_Driver\src\stm32f10x_tim.o
 .text.TIM_ETRConfig
                0x00000000       0x18 Libraries\STM32F10x_StdPeriph_Driver\src\stm32f10x_tim.o
 .text.TIM_PrescalerConfig
                0x00000000        0x8 Libraries\STM32F10x_StdPeriph_Driver\src\stm32f10x_tim.o
 .text.TIM_CounterModeConfig
                0x00000000       0x10 Libraries\STM32F10x_StdPeriph_Driver\src\stm32f10x_tim.o
 .text.TIM_SelectInputTrigger
                0x00000000       0x10 Libraries\STM32F10x_StdPeriph_Driver\src\stm32f10x_tim.o
 .text.TIM_EncoderInterfaceConfig
                0x00000000       0x40 Libraries\STM32F10x_StdPeriph_Driver\src\stm32f10x_tim.o
 .text.TIM_ForcedOC1Config
                0x00000000       0x10 Libraries\STM32F10x_StdPeriph_Driver\src\stm32f10x_tim.o
 .text.TIM_ForcedOC2Config
                0x00000000       0x14 Libraries\STM32F10x_StdPeriph_Driver\src\stm32f10x_tim.o
 .text.TIM_ForcedOC3Config
                0x00000000       0x10 Libraries\STM32F10x_StdPeriph_Driver\src\stm32f10x_tim.o
 .text.TIM_ForcedOC4Config
                0x00000000       0x14 Libraries\STM32F10x_StdPeriph_Driver\src\stm32f10x_tim.o
 .text.TIM_ARRPreloadConfig
                0x00000000       0x1c Libraries\STM32F10x_StdPeriph_Driver\src\stm32f10x_tim.o
 .text.TIM_SelectCOM
                0x00000000       0x1c Libraries\STM32F10x_StdPeriph_Driver\src\stm32f10x_tim.o
 .text.TIM_SelectCCDMA
                0x00000000       0x1c Libraries\STM32F10x_StdPeriph_Driver\src\stm32f10x_tim.o
 .text.TIM_CCPreloadControl
                0x00000000       0x1c Libraries\STM32F10x_StdPeriph_Driver\src\stm32f10x_tim.o
 .text.TIM_OC2PreloadConfig
                0x00000000       0x14 Libraries\STM32F10x_StdPeriph_Driver\src\stm32f10x_tim.o
 .text.TIM_OC3PreloadConfig
                0x00000000       0x10 Libraries\STM32F10x_StdPeriph_Driver\src\stm32f10x_tim.o
 .text.TIM_OC4PreloadConfig
                0x00000000       0x14 Libraries\STM32F10x_StdPeriph_Driver\src\stm32f10x_tim.o
 .text.TIM_OC1FastConfig
                0x00000000       0x10 Libraries\STM32F10x_StdPeriph_Driver\src\stm32f10x_tim.o
 .text.TIM_OC2FastConfig
                0x00000000       0x14 Libraries\STM32F10x_StdPeriph_Driver\src\stm32f10x_tim.o
 .text.TIM_OC3FastConfig
                0x00000000       0x10 Libraries\STM32F10x_StdPeriph_Driver\src\stm32f10x_tim.o
 .text.TIM_OC4FastConfig
                0x00000000       0x14 Libraries\STM32F10x_StdPeriph_Driver\src\stm32f10x_tim.o
 .text.TIM_ClearOC1Ref
                0x00000000       0x10 Libraries\STM32F10x_StdPeriph_Driver\src\stm32f10x_tim.o
 .text.TIM_ClearOC2Ref
                0x00000000       0x10 Libraries\STM32F10x_StdPeriph_Driver\src\stm32f10x_tim.o
 .text.TIM_ClearOC3Ref
                0x00000000       0x10 Libraries\STM32F10x_StdPeriph_Driver\src\stm32f10x_tim.o
 .text.TIM_ClearOC4Ref
                0x00000000       0x10 Libraries\STM32F10x_StdPeriph_Driver\src\stm32f10x_tim.o
 .text.TIM_OC1PolarityConfig
                0x00000000       0x10 Libraries\STM32F10x_StdPeriph_Driver\src\stm32f10x_tim.o
 .text.TIM_OC1NPolarityConfig
                0x00000000       0x10 Libraries\STM32F10x_StdPeriph_Driver\src\stm32f10x_tim.o
 .text.TIM_OC2PolarityConfig
                0x00000000       0x14 Libraries\STM32F10x_StdPeriph_Driver\src\stm32f10x_tim.o
 .text.TIM_OC2NPolarityConfig
                0x00000000       0x14 Libraries\STM32F10x_StdPeriph_Driver\src\stm32f10x_tim.o
 .text.TIM_OC3PolarityConfig
                0x00000000       0x14 Libraries\STM32F10x_StdPeriph_Driver\src\stm32f10x_tim.o
 .text.TIM_OC3NPolarityConfig
                0x00000000       0x14 Libraries\STM32F10x_StdPeriph_Driver\src\stm32f10x_tim.o
 .text.TIM_OC4PolarityConfig
                0x00000000       0x14 Libraries\STM32F10x_StdPeriph_Driver\src\stm32f10x_tim.o
 .text.TIM_CCxCmd
                0x00000000       0x20 Libraries\STM32F10x_StdPeriph_Driver\src\stm32f10x_tim.o
 .text.TIM_CCxNCmd
                0x00000000       0x20 Libraries\STM32F10x_StdPeriph_Driver\src\stm32f10x_tim.o
 .text.TIM_SelectOCxM
                0x00000000       0x48 Libraries\STM32F10x_StdPeriph_Driver\src\stm32f10x_tim.o
 .text.TIM_UpdateDisableConfig
                0x00000000       0x1c Libraries\STM32F10x_StdPeriph_Driver\src\stm32f10x_tim.o
 .text.TIM_UpdateRequestConfig
                0x00000000       0x1c Libraries\STM32F10x_StdPeriph_Driver\src\stm32f10x_tim.o
 .text.TIM_SelectHallSensor
                0x00000000       0x1c Libraries\STM32F10x_StdPeriph_Driver\src\stm32f10x_tim.o
 .text.TIM_SelectOnePulseMode
                0x00000000       0x18 Libraries\STM32F10x_StdPeriph_Driver\src\stm32f10x_tim.o
 .text.TIM_SelectOutputTrigger
                0x00000000       0x18 Libraries\STM32F10x_StdPeriph_Driver\src\stm32f10x_tim.o
 .text.TIM_SelectSlaveMode
                0x00000000       0x18 Libraries\STM32F10x_StdPeriph_Driver\src\stm32f10x_tim.o
 .text.TIM_SelectMasterSlaveMode
                0x00000000       0x18 Libraries\STM32F10x_StdPeriph_Driver\src\stm32f10x_tim.o
 .text.TIM_SetCounter
                0x00000000        0x4 Libraries\STM32F10x_StdPeriph_Driver\src\stm32f10x_tim.o
 .text.TIM_SetAutoreload
                0x00000000        0x4 Libraries\STM32F10x_StdPeriph_Driver\src\stm32f10x_tim.o
 .text.TIM_SetCompare1
                0x00000000        0x4 Libraries\STM32F10x_StdPeriph_Driver\src\stm32f10x_tim.o
 .text.TIM_SetCompare2
                0x00000000        0x4 Libraries\STM32F10x_StdPeriph_Driver\src\stm32f10x_tim.o
 .text.TIM_SetCompare3
                0x00000000        0x4 Libraries\STM32F10x_StdPeriph_Driver\src\stm32f10x_tim.o
 .text.TIM_SetCompare4
                0x00000000        0x8 Libraries\STM32F10x_StdPeriph_Driver\src\stm32f10x_tim.o
 .text.TIM_SetIC1Prescaler
                0x00000000       0x18 Libraries\STM32F10x_StdPeriph_Driver\src\stm32f10x_tim.o
 .text.TIM_SetIC2Prescaler
                0x00000000       0x1c Libraries\STM32F10x_StdPeriph_Driver\src\stm32f10x_tim.o
 .text.TIM_SetIC3Prescaler
                0x00000000       0x18 Libraries\STM32F10x_StdPeriph_Driver\src\stm32f10x_tim.o
 .text.TIM_SetIC4Prescaler
                0x00000000       0x1c Libraries\STM32F10x_StdPeriph_Driver\src\stm32f10x_tim.o
 .text.TIM_SetClockDivision
                0x00000000       0x18 Libraries\STM32F10x_StdPeriph_Driver\src\stm32f10x_tim.o
 .text.TIM_GetCapture1
                0x00000000        0x8 Libraries\STM32F10x_StdPeriph_Driver\src\stm32f10x_tim.o
 .text.TIM_GetCapture2
                0x00000000        0x8 Libraries\STM32F10x_StdPeriph_Driver\src\stm32f10x_tim.o
 .text.TIM_GetCapture3
                0x00000000        0x8 Libraries\STM32F10x_StdPeriph_Driver\src\stm32f10x_tim.o
 .text.TIM_GetCapture4
                0x00000000        0x8 Libraries\STM32F10x_StdPeriph_Driver\src\stm32f10x_tim.o
 .text.TIM_GetCounter
                0x00000000        0x8 Libraries\STM32F10x_StdPeriph_Driver\src\stm32f10x_tim.o
 .text.TIM_GetPrescaler
                0x00000000        0x8 Libraries\STM32F10x_StdPeriph_Driver\src\stm32f10x_tim.o
 .text.TIM_GetFlagStatus
                0x00000000        0xc Libraries\STM32F10x_StdPeriph_Driver\src\stm32f10x_tim.o
 .text.TIM_ClearFlag
                0x00000000        0x8 Libraries\STM32F10x_StdPeriph_Driver\src\stm32f10x_tim.o
 .text.TIM_GetITStatus
                0x00000000       0x18 Libraries\STM32F10x_StdPeriph_Driver\src\stm32f10x_tim.o
 .text          0x00000000        0x0 Libraries\STM32F10x_StdPeriph_Driver\src\stm32f10x_usart.o
 .data          0x00000000        0x0 Libraries\STM32F10x_StdPeriph_Driver\src\stm32f10x_usart.o
 .bss           0x00000000        0x0 Libraries\STM32F10x_StdPeriph_Driver\src\stm32f10x_usart.o
 .text.USART_DeInit
                0x00000000       0xb0 Libraries\STM32F10x_StdPeriph_Driver\src\stm32f10x_usart.o
 .text.USART_Init
                0x00000000       0xbc Libraries\STM32F10x_StdPeriph_Driver\src\stm32f10x_usart.o
 .text.USART_StructInit
                0x00000000       0x18 Libraries\STM32F10x_StdPeriph_Driver\src\stm32f10x_usart.o
 .text.USART_ClockInit
                0x00000000       0x24 Libraries\STM32F10x_StdPeriph_Driver\src\stm32f10x_usart.o
 .text.USART_ClockStructInit
                0x00000000        0x8 Libraries\STM32F10x_StdPeriph_Driver\src\stm32f10x_usart.o
 .text.USART_Cmd
                0x00000000       0x1c Libraries\STM32F10x_StdPeriph_Driver\src\stm32f10x_usart.o
 .text.USART_ITConfig
                0x00000000       0x38 Libraries\STM32F10x_StdPeriph_Driver\src\stm32f10x_usart.o
 .text.USART_DMACmd
                0x00000000       0x14 Libraries\STM32F10x_StdPeriph_Driver\src\stm32f10x_usart.o
 .text.USART_SetAddress
                0x00000000       0x18 Libraries\STM32F10x_StdPeriph_Driver\src\stm32f10x_usart.o
 .text.USART_WakeUpConfig
                0x00000000       0x18 Libraries\STM32F10x_StdPeriph_Driver\src\stm32f10x_usart.o
 .text.USART_ReceiverWakeUpCmd
                0x00000000       0x1c Libraries\STM32F10x_StdPeriph_Driver\src\stm32f10x_usart.o
 .text.USART_LINBreakDetectLengthConfig
                0x00000000       0x18 Libraries\STM32F10x_StdPeriph_Driver\src\stm32f10x_usart.o
 .text.USART_LINCmd
                0x00000000       0x1c Libraries\STM32F10x_StdPeriph_Driver\src\stm32f10x_usart.o
 .text.USART_SendData
                0x00000000        0x8 Libraries\STM32F10x_StdPeriph_Driver\src\stm32f10x_usart.o
 .text.USART_ReceiveData
                0x00000000        0x8 Libraries\STM32F10x_StdPeriph_Driver\src\stm32f10x_usart.o
 .text.USART_SendBreak
                0x00000000        0xc Libraries\STM32F10x_StdPeriph_Driver\src\stm32f10x_usart.o
 .text.USART_SetGuardTime
                0x00000000       0x14 Libraries\STM32F10x_StdPeriph_Driver\src\stm32f10x_usart.o
 .text.USART_SetPrescaler
                0x00000000       0x14 Libraries\STM32F10x_StdPeriph_Driver\src\stm32f10x_usart.o
 .text.USART_SmartCardCmd
                0x00000000       0x1c Libraries\STM32F10x_StdPeriph_Driver\src\stm32f10x_usart.o
 .text.USART_SmartCardNACKCmd
                0x00000000       0x1c Libraries\STM32F10x_StdPeriph_Driver\src\stm32f10x_usart.o
 .text.USART_HalfDuplexCmd
                0x00000000       0x1c Libraries\STM32F10x_StdPeriph_Driver\src\stm32f10x_usart.o
 .text.USART_OverSampling8Cmd
                0x00000000       0x1c Libraries\STM32F10x_StdPeriph_Driver\src\stm32f10x_usart.o
 .text.USART_OneBitMethodCmd
                0x00000000       0x1c Libraries\STM32F10x_StdPeriph_Driver\src\stm32f10x_usart.o
 .text.USART_IrDAConfig
                0x00000000       0x18 Libraries\STM32F10x_StdPeriph_Driver\src\stm32f10x_usart.o
 .text.USART_IrDACmd
                0x00000000       0x1c Libraries\STM32F10x_StdPeriph_Driver\src\stm32f10x_usart.o
 .text.USART_GetFlagStatus
                0x00000000        0xc Libraries\STM32F10x_StdPeriph_Driver\src\stm32f10x_usart.o
 .text.USART_ClearFlag
                0x00000000        0x8 Libraries\STM32F10x_StdPeriph_Driver\src\stm32f10x_usart.o
 .text.USART_GetITStatus
                0x00000000       0x48 Libraries\STM32F10x_StdPeriph_Driver\src\stm32f10x_usart.o
 .text.USART_ClearITPendingBit
                0x00000000       0x10 Libraries\STM32F10x_StdPeriph_Driver\src\stm32f10x_usart.o
 .debug_info    0x00000000      0xb35 Libraries\STM32F10x_StdPeriph_Driver\src\stm32f10x_usart.o
 .debug_abbrev  0x00000000      0x1f7 Libraries\STM32F10x_StdPeriph_Driver\src\stm32f10x_usart.o
 .debug_loc     0x00000000      0x811 Libraries\STM32F10x_StdPeriph_Driver\src\stm32f10x_usart.o
 .debug_aranges
                0x00000000      0x100 Libraries\STM32F10x_StdPeriph_Driver\src\stm32f10x_usart.o
 .debug_ranges  0x00000000       0xf0 Libraries\STM32F10x_StdPeriph_Driver\src\stm32f10x_usart.o
 .debug_line    0x00000000      0x4f8 Libraries\STM32F10x_StdPeriph_Driver\src\stm32f10x_usart.o
 .debug_str     0x00000000      0x75a Libraries\STM32F10x_StdPeriph_Driver\src\stm32f10x_usart.o
 .comment       0x00000000       0x7d Libraries\STM32F10x_StdPeriph_Driver\src\stm32f10x_usart.o
 .debug_frame   0x00000000      0x258 Libraries\STM32F10x_StdPeriph_Driver\src\stm32f10x_usart.o
 .ARM.attributes
                0x00000000       0x2f Libraries\STM32F10x_StdPeriph_Driver\src\stm32f10x_usart.o
 .text          0x00000000        0x0 Libraries\STM32F10x_StdPeriph_Driver\src\stm32f10x_wwdg.o
 .data          0x00000000        0x0 Libraries\STM32F10x_StdPeriph_Driver\src\stm32f10x_wwdg.o
 .bss           0x00000000        0x0 Libraries\STM32F10x_StdPeriph_Driver\src\stm32f10x_wwdg.o
 .text.WWDG_DeInit
                0x00000000       0x1c Libraries\STM32F10x_StdPeriph_Driver\src\stm32f10x_wwdg.o
 .text.WWDG_SetPrescaler
                0x00000000       0x14 Libraries\STM32F10x_StdPeriph_Driver\src\stm32f10x_wwdg.o
 .text.WWDG_SetWindowValue
                0x00000000       0x28 Libraries\STM32F10x_StdPeriph_Driver\src\stm32f10x_wwdg.o
 .text.WWDG_EnableIT
                0x00000000        0xc Libraries\STM32F10x_StdPeriph_Driver\src\stm32f10x_wwdg.o
 .text.WWDG_SetCounter
                0x00000000       0x10 Libraries\STM32F10x_StdPeriph_Driver\src\stm32f10x_wwdg.o
 .text.WWDG_Enable
                0x00000000       0x10 Libraries\STM32F10x_StdPeriph_Driver\src\stm32f10x_wwdg.o
 .text.WWDG_GetFlagStatus
                0x00000000        0xc Libraries\STM32F10x_StdPeriph_Driver\src\stm32f10x_wwdg.o
 .text.WWDG_ClearFlag
                0x00000000        0xc Libraries\STM32F10x_StdPeriph_Driver\src\stm32f10x_wwdg.o
 .debug_info    0x00000000      0x28b Libraries\STM32F10x_StdPeriph_Driver\src\stm32f10x_wwdg.o
 .debug_abbrev  0x00000000      0x15b Libraries\STM32F10x_StdPeriph_Driver\src\stm32f10x_wwdg.o
 .debug_loc     0x00000000       0xae Libraries\STM32F10x_StdPeriph_Driver\src\stm32f10x_wwdg.o
 .debug_aranges
                0x00000000       0x58 Libraries\STM32F10x_StdPeriph_Driver\src\stm32f10x_wwdg.o
 .debug_ranges  0x00000000       0x48 Libraries\STM32F10x_StdPeriph_Driver\src\stm32f10x_wwdg.o
 .debug_line    0x00000000      0x296 Libraries\STM32F10x_StdPeriph_Driver\src\stm32f10x_wwdg.o
 .debug_str     0x00000000      0x2fe Libraries\STM32F10x_StdPeriph_Driver\src\stm32f10x_wwdg.o
 .comment       0x00000000       0x7d Libraries\STM32F10x_StdPeriph_Driver\src\stm32f10x_wwdg.o
 .debug_frame   0x00000000       0xa4 Libraries\STM32F10x_StdPeriph_Driver\src\stm32f10x_wwdg.o
 .ARM.attributes
                0x00000000       0x2f Libraries\STM32F10x_StdPeriph_Driver\src\stm32f10x_wwdg.o
 .text          0x00000000        0x0 src\coolant_control.o
 .data          0x00000000        0x0 src\coolant_control.o
 .bss           0x00000000        0x0 src\coolant_control.o
 .text          0x00000000        0x0 src\eeprom.o
 .data          0x00000000        0x0 src\eeprom.o
 .bss           0x00000000        0x0 src\eeprom.o
 .text.eeprom_flush
                0x00000000       0x6c src\eeprom.o
 .text          0x00000000        0x0 src\gcode.o
 .data          0x00000000        0x0 src\gcode.o
 .bss           0x00000000        0x0 src\gcode.o
 .text          0x00000000        0x0 src\jog.o
 .data          0x00000000        0x0 src\jog.o
 .bss           0x00000000        0x0 src\jog.o
 .text          0x00000000        0x0 src\limits.o
 .data          0x00000000        0x0 src\limits.o
 .bss           0x00000000        0x0 src\limits.o
 .text          0x00000000        0x0 src\main.o
 .data          0x00000000        0x0 src\main.o
 .bss           0x00000000        0x0 src\main.o
 .text          0x00000000        0x0 src\motion_control.o
 .data          0x00000000        0x0 src\motion_control.o
 .bss           0x00000000        0x0 src\motion_control.o
 .text          0x00000000        0x0 src\nuts_bolts.o
 .data          0x00000000        0x0 src\nuts_bolts.o
 .bss           0x00000000        0x0 src\nuts_bolts.o
 .text          0x00000000        0x0 src\planner.o
 .data          0x00000000        0x0 src\planner.o
 .bss           0x00000000        0x0 src\planner.o
 .text.plan_next_block_index
                0x00000000        0xc src\planner.o
 .text.plan_reset_buffer
                0x00000000       0x2c src\planner.o
 .text.plan_get_block_buffer_count
                0x00000000       0x1c src\planner.o
 .text          0x00000000        0x0 src\print.o
 .data          0x00000000        0x0 src\print.o
 .bss           0x00000000        0x0 src\print.o
 .text.print_uint8_base2_ndigit
                0x00000000       0x50 src\print.o
 .text.print_uint32_base10
                0x00000000       0x58 src\print.o
 .text.printInteger
                0x00000000       0xb8 src\print.o
 .text          0x00000000        0x0 src\probe.o
 .data          0x00000000        0x0 src\probe.o
 .bss           0x00000000        0x0 src\probe.o
 .text          0x00000000        0x0 src\protocol.o
 .data          0x00000000        0x0 src\protocol.o
 .bss           0x00000000        0x0 src\protocol.o
 .text          0x00000000        0x0 src\report.o
 .data          0x00000000        0x0 src\report.o
 .bss           0x00000000        0x0 src\report.o
 .text.report_util_setting_prefix
                0x00000000       0x1c src\report.o
 .text.report_echo_line_received
                0x00000000       0x28 src\report.o
 .rodata.report_echo_line_received.str1.4
                0x00000000        0x8 src\report.o
 .text          0x00000000        0x0 src\serial.o
 .data          0x00000000        0x0 src\serial.o
 .bss           0x00000000        0x0 src\serial.o
 .text.serial_get_rx_buffer_count
                0x00000000       0x20 src\serial.o
 .text.serial_get_tx_buffer_count
                0x00000000       0x20 src\serial.o
 .text          0x00000000        0x0 src\settings.o
 .data          0x00000000        0x0 src\settings.o
 .bss           0x00000000        0x0 src\settings.o
 .text.write_global_settings
                0x00000000       0x1c src\settings.o
 .text.read_global_settings
                0x00000000       0x28 src\settings.o
 .text          0x00000000        0x0 src\spindle_control.o
 .data          0x00000000        0x0 src\spindle_control.o
 .bss           0x00000000        0x0 src\spindle_control.o
 .text          0x00000000       0x14 src\startup_stm32f10x_md.o
 .data          0x00000000        0x0 src\startup_stm32f10x_md.o
 .bss           0x00000000        0x0 src\startup_stm32f10x_md.o
 .text          0x00000000        0x0 src\stepper.o
 .data          0x00000000        0x0 src\stepper.o
 .bss           0x00000000        0x0 src\stepper.o
 .text.TIM_Configuration
                0x00000000       0x90 src\stepper.o
 .text          0x00000000        0x0 src\system.o
 .data          0x00000000        0x0 src\system.o
 .bss           0x00000000        0x0 src\system.o
 .text.system_convert_axis_steps_to_mpos
                0x00000000       0x1c src\system.o
 .text          0x00000000        0x0 src\system_stm32f10x.o
 .data          0x00000000        0x0 src\system_stm32f10x.o
 .bss           0x00000000        0x0 src\system_stm32f10x.o
 .text.SystemCoreClockUpdate
                0x00000000       0x5c src\system_stm32f10x.o
 .data.AHBPrescTable
                0x00000000       0x10 src\system_stm32f10x.o
 .text          0x00000000        0x0 stm_usb_fs_lib\src\usb_core.o
 .data          0x00000000        0x0 stm_usb_fs_lib\src\usb_core.o
 .bss           0x00000000        0x0 stm_usb_fs_lib\src\usb_core.o
 .text.Standard_SetConfiguration
                0x00000000       0x3c stm_usb_fs_lib\src\usb_core.o
 .text.Standard_SetInterface
                0x00000000       0x54 stm_usb_fs_lib\src\usb_core.o
 .text.Standard_SetDeviceFeature
                0x00000000       0x24 stm_usb_fs_lib\src\usb_core.o
 .text.Post0_Process
                0x00000000       0x44 stm_usb_fs_lib\src\usb_core.o
 .text          0x00000000        0x0 stm_usb_fs_lib\src\usb_init.o
 .data          0x00000000        0x0 stm_usb_fs_lib\src\usb_init.o
 .bss           0x00000000        0x0 stm_usb_fs_lib\src\usb_init.o
 .text          0x00000000        0x0 stm_usb_fs_lib\src\usb_int.o
 .data          0x00000000        0x0 stm_usb_fs_lib\src\usb_int.o
 .bss           0x00000000        0x0 stm_usb_fs_lib\src\usb_int.o
 .text.CTR_HP   0x00000000       0x78 stm_usb_fs_lib\src\usb_int.o
 .text          0x00000000        0x0 stm_usb_fs_lib\src\usb_mem.o
 .data          0x00000000        0x0 stm_usb_fs_lib\src\usb_mem.o
 .bss           0x00000000        0x0 stm_usb_fs_lib\src\usb_mem.o
 .text          0x00000000        0x0 stm_usb_fs_lib\src\usb_regs.o
 .data          0x00000000        0x0 stm_usb_fs_lib\src\usb_regs.o
 .bss           0x00000000        0x0 stm_usb_fs_lib\src\usb_regs.o
 .text.SetCNTR  0x00000000        0xc stm_usb_fs_lib\src\usb_regs.o
 .text.GetCNTR  0x00000000        0xc stm_usb_fs_lib\src\usb_regs.o
 .text.SetISTR  0x00000000        0xc stm_usb_fs_lib\src\usb_regs.o
 .text.GetISTR  0x00000000        0xc stm_usb_fs_lib\src\usb_regs.o
 .text.GetFNR   0x00000000        0xc stm_usb_fs_lib\src\usb_regs.o
 .text.SetDADDR
                0x00000000        0xc stm_usb_fs_lib\src\usb_regs.o
 .text.GetDADDR
                0x00000000        0xc stm_usb_fs_lib\src\usb_regs.o
 .text.GetBTABLE
                0x00000000        0xc stm_usb_fs_lib\src\usb_regs.o
 .text.SetENDPOINT
                0x00000000       0x10 stm_usb_fs_lib\src\usb_regs.o
 .text.GetENDPOINT
                0x00000000       0x10 stm_usb_fs_lib\src\usb_regs.o
 .text.GetEPType
                0x00000000       0x14 stm_usb_fs_lib\src\usb_regs.o
 .text.SetDouBleBuffEPStall
                0x00000000       0x2c stm_usb_fs_lib\src\usb_regs.o
 .text.GetEPTxStatus
                0x00000000       0x14 stm_usb_fs_lib\src\usb_regs.o
 .text.GetEPRxStatus
                0x00000000       0x14 stm_usb_fs_lib\src\usb_regs.o
 .text.SetEP_KIND
                0x00000000       0x20 stm_usb_fs_lib\src\usb_regs.o
 .text.ClearEP_KIND
                0x00000000       0x20 stm_usb_fs_lib\src\usb_regs.o
 .text.Set_Status_Out
                0x00000000       0x20 stm_usb_fs_lib\src\usb_regs.o
 .text.SetEPDoubleBuff
                0x00000000       0x20 stm_usb_fs_lib\src\usb_regs.o
 .text.ClearEPDoubleBuff
                0x00000000       0x20 stm_usb_fs_lib\src\usb_regs.o
 .text.GetTxStallStatus
                0x00000000       0x1c stm_usb_fs_lib\src\usb_regs.o
 .text.GetRxStallStatus
                0x00000000       0x1c stm_usb_fs_lib\src\usb_regs.o
 .text.ClearEP_CTR_RX
                0x00000000       0x18 stm_usb_fs_lib\src\usb_regs.o
 .text.ClearEP_CTR_TX
                0x00000000       0x18 stm_usb_fs_lib\src\usb_regs.o
 .text.ToggleDTOG_RX
                0x00000000       0x20 stm_usb_fs_lib\src\usb_regs.o
 .text.ToggleDTOG_TX
                0x00000000       0x20 stm_usb_fs_lib\src\usb_regs.o
 .text.SetEPAddress
                0x00000000       0x20 stm_usb_fs_lib\src\usb_regs.o
 .text.GetEPAddress
                0x00000000       0x14 stm_usb_fs_lib\src\usb_regs.o
 .text.SetEPCountRxReg
                0x00000000       0x28 stm_usb_fs_lib\src\usb_regs.o
 .text.GetEPTxCount
                0x00000000       0x20 stm_usb_fs_lib\src\usb_regs.o
 .text.SetEPDblBuffAddr
                0x00000000       0x3c stm_usb_fs_lib\src\usb_regs.o
 .text.SetEPDblBuf0Addr
                0x00000000       0x20 stm_usb_fs_lib\src\usb_regs.o
 .text.SetEPDblBuf1Addr
                0x00000000       0x20 stm_usb_fs_lib\src\usb_regs.o
 .text.GetEPDblBuf0Addr
                0x00000000       0x1c stm_usb_fs_lib\src\usb_regs.o
 .text.GetEPDblBuf1Addr
                0x00000000       0x1c stm_usb_fs_lib\src\usb_regs.o
 .text.SetEPDblBuffCount
                0x00000000       0xac stm_usb_fs_lib\src\usb_regs.o
 .text.SetEPDblBuf0Count
                0x00000000       0x60 stm_usb_fs_lib\src\usb_regs.o
 .text.SetEPDblBuf1Count
                0x00000000       0x60 stm_usb_fs_lib\src\usb_regs.o
 .text.GetEPDblBuf0Count
                0x00000000       0x20 stm_usb_fs_lib\src\usb_regs.o
 .text.GetEPDblBuf1Count
                0x00000000       0x20 stm_usb_fs_lib\src\usb_regs.o
 .text.GetEPDblBufDir
                0x00000000       0x44 stm_usb_fs_lib\src\usb_regs.o
 .text.FreeUserBuffer
                0x00000000       0x48 stm_usb_fs_lib\src\usb_regs.o
 .text.ToWord   0x00000000        0x8 stm_usb_fs_lib\src\usb_regs.o
 .text          0x00000000        0x0 stm_usb_fs_lib\src\usb_sil.o
 .data          0x00000000        0x0 stm_usb_fs_lib\src\usb_sil.o
 .bss           0x00000000        0x0 stm_usb_fs_lib\src\usb_sil.o
 .text.USB_SIL_Write
                0x00000000       0x28 stm_usb_fs_lib\src\usb_sil.o
 .text          0x00000000        0x0 usb\hw_config.o
 .data          0x00000000        0x0 usb\hw_config.o
 .bss           0x00000000        0x0 usb\hw_config.o
 .text.Set_System
                0x00000000        0x4 usb\hw_config.o
 .text.Enter_LowPowerMode
                0x00000000        0xc usb\hw_config.o
 .text.Leave_LowPowerMode
                0x00000000       0x20 usb\hw_config.o
 COMMON         0x00000000        0x1 usb\hw_config.o
 .text          0x00000000        0x0 usb\usb_desc.o
 .data          0x00000000        0x0 usb\usb_desc.o
 .bss           0x00000000        0x0 usb\usb_desc.o
 .text          0x00000000        0x0 usb\usb_endp.o
 .data          0x00000000        0x0 usb\usb_endp.o
 .bss           0x00000000        0x0 usb\usb_endp.o
 .text          0x00000000        0x0 usb\usb_istr.o
 .data          0x00000000        0x0 usb\usb_istr.o
 .bss           0x00000000        0x0 usb\usb_istr.o
 .text          0x00000000        0x0 usb\usb_prop.o
 .data          0x00000000        0x0 usb\usb_prop.o
 .bss           0x00000000        0x0 usb\usb_prop.o
 .text          0x00000000        0x0 usb\usb_pwr.o
 .data          0x00000000        0x0 usb\usb_pwr.o
 .bss           0x00000000        0x0 usb\usb_pwr.o
 .text.PowerOff
                0x00000000       0x24 usb\usb_pwr.o
 .text.Suspend  0x00000000       0x20 usb\usb_pwr.o
 .text.Resume_Init
                0x00000000       0x20 usb\usb_pwr.o
 .text.Resume   0x00000000       0xb4 usb\usb_pwr.o
 .data.fSuspendEnabled
                0x00000000        0x4 usb\usb_pwr.o
 COMMON         0x00000000        0x2 usb\usb_pwr.o
 .text          0x00000000        0x0 util\stm32f10x_it.o
 .data          0x00000000        0x0 util\stm32f10x_it.o
 .bss           0x00000000        0x0 util\stm32f10x_it.o
 .text.EVAL_COM1_IRQHandler
                0x00000000        0x4 util\stm32f10x_it.o
 .text          0x00000000        0x0 c:/program files (x86)/atollic/truestudio for stm32 9.1.0/armtools/bin/../lib/gcc/arm-atollic-eabi/6.3.1/../../../../arm-atollic-eabi/lib/armv7-m\libc.a(lib_a-init.o)
 .data          0x00000000        0x0 c:/program files (x86)/atollic/truestudio for stm32 9.1.0/armtools/bin/../lib/gcc/arm-atollic-eabi/6.3.1/../../../../arm-atollic-eabi/lib/armv7-m\libc.a(lib_a-init.o)
 .bss           0x00000000        0x0 c:/program files (x86)/atollic/truestudio for stm32 9.1.0/armtools/bin/../lib/gcc/arm-atollic-eabi/6.3.1/../../../../arm-atollic-eabi/lib/armv7-m\libc.a(lib_a-init.o)
 .text          0x00000000        0x0 c:/program files (x86)/atollic/truestudio for stm32 9.1.0/armtools/bin/../lib/gcc/arm-atollic-eabi/6.3.1/../../../../arm-atollic-eabi/lib/armv7-m\libc.a(lib_a-memcmp.o)
 .data          0x00000000        0x0 c:/program files (x86)/atollic/truestudio for stm32 9.1.0/armtools/bin/../lib/gcc/arm-atollic-eabi/6.3.1/../../../../arm-atollic-eabi/lib/armv7-m\libc.a(lib_a-memcmp.o)
 .bss           0x00000000        0x0 c:/program files (x86)/atollic/truestudio for stm32 9.1.0/armtools/bin/../lib/gcc/arm-atollic-eabi/6.3.1/../../../../arm-atollic-eabi/lib/armv7-m\libc.a(lib_a-memcmp.o)
 .text          0x00000000        0x0 c:/program files (x86)/atollic/truestudio for stm32 9.1.0/armtools/bin/../lib/gcc/arm-atollic-eabi/6.3.1/../../../../arm-atollic-eabi/lib/armv7-m\libc.a(lib_a-memset.o)
 .data          0x00000000        0x0 c:/program files (x86)/atollic/truestudio for stm32 9.1.0/armtools/bin/../lib/gcc/arm-atollic-eabi/6.3.1/../../../../arm-atollic-eabi/lib/armv7-m\libc.a(lib_a-memset.o)
 .bss           0x00000000        0x0 c:/program files (x86)/atollic/truestudio for stm32 9.1.0/armtools/bin/../lib/gcc/arm-atollic-eabi/6.3.1/../../../../arm-atollic-eabi/lib/armv7-m\libc.a(lib_a-memset.o)
 .text          0x00000000        0x0 c:/program files (x86)/atollic/truestudio for stm32 9.1.0/armtools/bin/../lib/gcc/arm-atollic-eabi/6.3.1/../../../../arm-atollic-eabi/lib/armv7-m\libm.a(lib_a-sf_ceil.o)
 .data          0x00000000        0x0 c:/program files (x86)/atollic/truestudio for stm32 9.1.0/armtools/bin/../lib/gcc/arm-atollic-eabi/6.3.1/../../../../arm-atollic-eabi/lib/armv7-m\libm.a(lib_a-sf_ceil.o)
 .bss           0x00000000        0x0 c:/program files (x86)/atollic/truestudio for stm32 9.1.0/armtools/bin/../lib/gcc/arm-atollic-eabi/6.3.1/../../../../arm-atollic-eabi/lib/armv7-m\libm.a(lib_a-sf_ceil.o)
 .text          0x00000000        0x0 c:/program files (x86)/atollic/truestudio for stm32 9.1.0/armtools/bin/../lib/gcc/arm-atollic-eabi/6.3.1/../../../../arm-atollic-eabi/lib/armv7-m\libm.a(lib_a-sf_cos.o)
 .data          0x00000000        0x0 c:/program files (x86)/atollic/truestudio for stm32 9.1.0/armtools/bin/../lib/gcc/arm-atollic-eabi/6.3.1/../../../../arm-atollic-eabi/lib/armv7-m\libm.a(lib_a-sf_cos.o)
 .bss           0x00000000        0x0 c:/program files (x86)/atollic/truestudio for stm32 9.1.0/armtools/bin/../lib/gcc/arm-atollic-eabi/6.3.1/../../../../arm-atollic-eabi/lib/armv7-m\libm.a(lib_a-sf_cos.o)
 .text          0x00000000        0x0 c:/program files (x86)/atollic/truestudio for stm32 9.1.0/armtools/bin/../lib/gcc/arm-atollic-eabi/6.3.1/../../../../arm-atollic-eabi/lib/armv7-m\libm.a(lib_a-sf_floor.o)
 .data          0x00000000        0x0 c:/program files (x86)/atollic/truestudio for stm32 9.1.0/armtools/bin/../lib/gcc/arm-atollic-eabi/6.3.1/../../../../arm-atollic-eabi/lib/armv7-m\libm.a(lib_a-sf_floor.o)
 .bss           0x00000000        0x0 c:/program files (x86)/atollic/truestudio for stm32 9.1.0/armtools/bin/../lib/gcc/arm-atollic-eabi/6.3.1/../../../../arm-atollic-eabi/lib/armv7-m\libm.a(lib_a-sf_floor.o)
 .text          0x00000000        0x0 c:/program files (x86)/atollic/truestudio for stm32 9.1.0/armtools/bin/../lib/gcc/arm-atollic-eabi/6.3.1/../../../../arm-atollic-eabi/lib/armv7-m\libm.a(lib_a-sf_lround.o)
 .data          0x00000000        0x0 c:/program files (x86)/atollic/truestudio for stm32 9.1.0/armtools/bin/../lib/gcc/arm-atollic-eabi/6.3.1/../../../../arm-atollic-eabi/lib/armv7-m\libm.a(lib_a-sf_lround.o)
 .bss           0x00000000        0x0 c:/program files (x86)/atollic/truestudio for stm32 9.1.0/armtools/bin/../lib/gcc/arm-atollic-eabi/6.3.1/../../../../arm-atollic-eabi/lib/armv7-m\libm.a(lib_a-sf_lround.o)
 .text          0x00000000        0x0 c:/program files (x86)/atollic/truestudio for stm32 9.1.0/armtools/bin/../lib/gcc/arm-atollic-eabi/6.3.1/../../../../arm-atollic-eabi/lib/armv7-m\libm.a(lib_a-sf_sin.o)
 .data          0x00000000        0x0 c:/program files (x86)/atollic/truestudio for stm32 9.1.0/armtools/bin/../lib/gcc/arm-atollic-eabi/6.3.1/../../../../arm-atollic-eabi/lib/armv7-m\libm.a(lib_a-sf_sin.o)
 .bss           0x00000000        0x0 c:/program files (x86)/atollic/truestudio for stm32 9.1.0/armtools/bin/../lib/gcc/arm-atollic-eabi/6.3.1/../../../../arm-atollic-eabi/lib/armv7-m\libm.a(lib_a-sf_sin.o)
 .text          0x00000000        0x0 c:/program files (x86)/atollic/truestudio for stm32 9.1.0/armtools/bin/../lib/gcc/arm-atollic-eabi/6.3.1/../../../../arm-atollic-eabi/lib/armv7-m\libm.a(lib_a-wf_atan2.o)
 .data          0x00000000        0x0 c:/program files (x86)/atollic/truestudio for stm32 9.1.0/armtools/bin/../lib/gcc/arm-atollic-eabi/6.3.1/../../../../arm-atollic-eabi/lib/armv7-m\libm.a(lib_a-wf_atan2.o)
 .bss           0x00000000        0x0 c:/program files (x86)/atollic/truestudio for stm32 9.1.0/armtools/bin/../lib/gcc/arm-atollic-eabi/6.3.1/../../../../arm-atollic-eabi/lib/armv7-m\libm.a(lib_a-wf_atan2.o)
 .text          0x00000000        0x0 c:/program files (x86)/atollic/truestudio for stm32 9.1.0/armtools/bin/../lib/gcc/arm-atollic-eabi/6.3.1/../../../../arm-atollic-eabi/lib/armv7-m\libm.a(lib_a-wf_sqrt.o)
 .data          0x00000000        0x0 c:/program files (x86)/atollic/truestudio for stm32 9.1.0/armtools/bin/../lib/gcc/arm-atollic-eabi/6.3.1/../../../../arm-atollic-eabi/lib/armv7-m\libm.a(lib_a-wf_sqrt.o)
 .bss           0x00000000        0x0 c:/program files (x86)/atollic/truestudio for stm32 9.1.0/armtools/bin/../lib/gcc/arm-atollic-eabi/6.3.1/../../../../arm-atollic-eabi/lib/armv7-m\libm.a(lib_a-wf_sqrt.o)
 .text          0x00000000        0x0 c:/program files (x86)/atollic/truestudio for stm32 9.1.0/armtools/bin/../lib/gcc/arm-atollic-eabi/6.3.1/../../../../arm-atollic-eabi/lib/armv7-m\libm.a(lib_a-ef_atan2.o)
 .data          0x00000000        0x0 c:/program files (x86)/atollic/truestudio for stm32 9.1.0/armtools/bin/../lib/gcc/arm-atollic-eabi/6.3.1/../../../../arm-atollic-eabi/lib/armv7-m\libm.a(lib_a-ef_atan2.o)
 .bss           0x00000000        0x0 c:/program files (x86)/atollic/truestudio for stm32 9.1.0/armtools/bin/../lib/gcc/arm-atollic-eabi/6.3.1/../../../../arm-atollic-eabi/lib/armv7-m\libm.a(lib_a-ef_atan2.o)
 .text          0x00000000        0x0 c:/program files (x86)/atollic/truestudio for stm32 9.1.0/armtools/bin/../lib/gcc/arm-atollic-eabi/6.3.1/../../../../arm-atollic-eabi/lib/armv7-m\libm.a(lib_a-ef_rem_pio2.o)
 .data          0x00000000        0x0 c:/program files (x86)/atollic/truestudio for stm32 9.1.0/armtools/bin/../lib/gcc/arm-atollic-eabi/6.3.1/../../../../arm-atollic-eabi/lib/armv7-m\libm.a(lib_a-ef_rem_pio2.o)
 .bss           0x00000000        0x0 c:/program files (x86)/atollic/truestudio for stm32 9.1.0/armtools/bin/../lib/gcc/arm-atollic-eabi/6.3.1/../../../../arm-atollic-eabi/lib/armv7-m\libm.a(lib_a-ef_rem_pio2.o)
 .text          0x00000000        0x0 c:/program files (x86)/atollic/truestudio for stm32 9.1.0/armtools/bin/../lib/gcc/arm-atollic-eabi/6.3.1/../../../../arm-atollic-eabi/lib/armv7-m\libm.a(lib_a-ef_sqrt.o)
 .data          0x00000000        0x0 c:/program files (x86)/atollic/truestudio for stm32 9.1.0/armtools/bin/../lib/gcc/arm-atollic-eabi/6.3.1/../../../../arm-atollic-eabi/lib/armv7-m\libm.a(lib_a-ef_sqrt.o)
 .bss           0x00000000        0x0 c:/program files (x86)/atollic/truestudio for stm32 9.1.0/armtools/bin/../lib/gcc/arm-atollic-eabi/6.3.1/../../../../arm-atollic-eabi/lib/armv7-m\libm.a(lib_a-ef_sqrt.o)
 .text          0x00000000        0x0 c:/program files (x86)/atollic/truestudio for stm32 9.1.0/armtools/bin/../lib/gcc/arm-atollic-eabi/6.3.1/../../../../arm-atollic-eabi/lib/armv7-m\libm.a(lib_a-kf_cos.o)
 .data          0x00000000        0x0 c:/program files (x86)/atollic/truestudio for stm32 9.1.0/armtools/bin/../lib/gcc/arm-atollic-eabi/6.3.1/../../../../arm-atollic-eabi/lib/armv7-m\libm.a(lib_a-kf_cos.o)
 .bss           0x00000000        0x0 c:/program files (x86)/atollic/truestudio for stm32 9.1.0/armtools/bin/../lib/gcc/arm-atollic-eabi/6.3.1/../../../../arm-atollic-eabi/lib/armv7-m\libm.a(lib_a-kf_cos.o)
 .text          0x00000000        0x0 c:/program files (x86)/atollic/truestudio for stm32 9.1.0/armtools/bin/../lib/gcc/arm-atollic-eabi/6.3.1/../../../../arm-atollic-eabi/lib/armv7-m\libm.a(lib_a-kf_rem_pio2.o)
 .data          0x00000000        0x0 c:/program files (x86)/atollic/truestudio for stm32 9.1.0/armtools/bin/../lib/gcc/arm-atollic-eabi/6.3.1/../../../../arm-atollic-eabi/lib/armv7-m\libm.a(lib_a-kf_rem_pio2.o)
 .bss           0x00000000        0x0 c:/program files (x86)/atollic/truestudio for stm32 9.1.0/armtools/bin/../lib/gcc/arm-atollic-eabi/6.3.1/../../../../arm-atollic-eabi/lib/armv7-m\libm.a(lib_a-kf_rem_pio2.o)
 .text          0x00000000        0x0 c:/program files (x86)/atollic/truestudio for stm32 9.1.0/armtools/bin/../lib/gcc/arm-atollic-eabi/6.3.1/../../../../arm-atollic-eabi/lib/armv7-m\libm.a(lib_a-kf_sin.o)
 .data          0x00000000        0x0 c:/program files (x86)/atollic/truestudio for stm32 9.1.0/armtools/bin/../lib/gcc/arm-atollic-eabi/6.3.1/../../../../arm-atollic-eabi/lib/armv7-m\libm.a(lib_a-kf_sin.o)
 .bss           0x00000000        0x0 c:/program files (x86)/atollic/truestudio for stm32 9.1.0/armtools/bin/../lib/gcc/arm-atollic-eabi/6.3.1/../../../../arm-atollic-eabi/lib/armv7-m\libm.a(lib_a-kf_sin.o)
 .text          0x00000000        0x0 c:/program files (x86)/atollic/truestudio for stm32 9.1.0/armtools/bin/../lib/gcc/arm-atollic-eabi/6.3.1/../../../../arm-atollic-eabi/lib/armv7-m\libm.a(lib_a-s_lib_ver.o)
 .data          0x00000000        0x0 c:/program files (x86)/atollic/truestudio for stm32 9.1.0/armtools/bin/../lib/gcc/arm-atollic-eabi/6.3.1/../../../../arm-atollic-eabi/lib/armv7-m\libm.a(lib_a-s_lib_ver.o)
 .bss           0x00000000        0x0 c:/program files (x86)/atollic/truestudio for stm32 9.1.0/armtools/bin/../lib/gcc/arm-atollic-eabi/6.3.1/../../../../arm-atollic-eabi/lib/armv7-m\libm.a(lib_a-s_lib_ver.o)
 .text          0x00000000        0x0 c:/program files (x86)/atollic/truestudio for stm32 9.1.0/armtools/bin/../lib/gcc/arm-atollic-eabi/6.3.1/../../../../arm-atollic-eabi/lib/armv7-m\libm.a(lib_a-s_matherr.o)
 .data          0x00000000        0x0 c:/program files (x86)/atollic/truestudio for stm32 9.1.0/armtools/bin/../lib/gcc/arm-atollic-eabi/6.3.1/../../../../arm-atollic-eabi/lib/armv7-m\libm.a(lib_a-s_matherr.o)
 .bss           0x00000000        0x0 c:/program files (x86)/atollic/truestudio for stm32 9.1.0/armtools/bin/../lib/gcc/arm-atollic-eabi/6.3.1/../../../../arm-atollic-eabi/lib/armv7-m\libm.a(lib_a-s_matherr.o)
 .text          0x00000000        0x0 c:/program files (x86)/atollic/truestudio for stm32 9.1.0/armtools/bin/../lib/gcc/arm-atollic-eabi/6.3.1/../../../../arm-atollic-eabi/lib/armv7-m\libm.a(lib_a-sf_atan.o)
 .data          0x00000000        0x0 c:/program files (x86)/atollic/truestudio for stm32 9.1.0/armtools/bin/../lib/gcc/arm-atollic-eabi/6.3.1/../../../../arm-atollic-eabi/lib/armv7-m\libm.a(lib_a-sf_atan.o)
 .bss           0x00000000        0x0 c:/program files (x86)/atollic/truestudio for stm32 9.1.0/armtools/bin/../lib/gcc/arm-atollic-eabi/6.3.1/../../../../arm-atollic-eabi/lib/armv7-m\libm.a(lib_a-sf_atan.o)
 .text          0x00000000        0x0 c:/program files (x86)/atollic/truestudio for stm32 9.1.0/armtools/bin/../lib/gcc/arm-atollic-eabi/6.3.1/../../../../arm-atollic-eabi/lib/armv7-m\libm.a(lib_a-sf_fabs.o)
 .data          0x00000000        0x0 c:/program files (x86)/atollic/truestudio for stm32 9.1.0/armtools/bin/../lib/gcc/arm-atollic-eabi/6.3.1/../../../../arm-atollic-eabi/lib/armv7-m\libm.a(lib_a-sf_fabs.o)
 .bss           0x00000000        0x0 c:/program files (x86)/atollic/truestudio for stm32 9.1.0/armtools/bin/../lib/gcc/arm-atollic-eabi/6.3.1/../../../../arm-atollic-eabi/lib/armv7-m\libm.a(lib_a-sf_fabs.o)
 .text          0x00000000        0x0 c:/program files (x86)/atollic/truestudio for stm32 9.1.0/armtools/bin/../lib/gcc/arm-atollic-eabi/6.3.1/../../../../arm-atollic-eabi/lib/armv7-m\libm.a(lib_a-sf_scalbn.o)
 .data          0x00000000        0x0 c:/program files (x86)/atollic/truestudio for stm32 9.1.0/armtools/bin/../lib/gcc/arm-atollic-eabi/6.3.1/../../../../arm-atollic-eabi/lib/armv7-m\libm.a(lib_a-sf_scalbn.o)
 .bss           0x00000000        0x0 c:/program files (x86)/atollic/truestudio for stm32 9.1.0/armtools/bin/../lib/gcc/arm-atollic-eabi/6.3.1/../../../../arm-atollic-eabi/lib/armv7-m\libm.a(lib_a-sf_scalbn.o)
 .text          0x00000000        0x0 c:/program files (x86)/atollic/truestudio for stm32 9.1.0/armtools/bin/../lib/gcc/arm-atollic-eabi/6.3.1/../../../../arm-atollic-eabi/lib/armv7-m\libm.a(lib_a-sf_copysign.o)
 .data          0x00000000        0x0 c:/program files (x86)/atollic/truestudio for stm32 9.1.0/armtools/bin/../lib/gcc/arm-atollic-eabi/6.3.1/../../../../arm-atollic-eabi/lib/armv7-m\libm.a(lib_a-sf_copysign.o)
 .bss           0x00000000        0x0 c:/program files (x86)/atollic/truestudio for stm32 9.1.0/armtools/bin/../lib/gcc/arm-atollic-eabi/6.3.1/../../../../arm-atollic-eabi/lib/armv7-m\libm.a(lib_a-sf_copysign.o)
 .text          0x00000000        0x0 c:/program files (x86)/atollic/truestudio for stm32 9.1.0/armtools/bin/../lib/gcc/arm-atollic-eabi/6.3.1/../../../../arm-atollic-eabi/lib/armv7-m\libc.a(lib_a-errno.o)
 .data          0x00000000        0x0 c:/program files (x86)/atollic/truestudio for stm32 9.1.0/armtools/bin/../lib/gcc/arm-atollic-eabi/6.3.1/../../../../arm-atollic-eabi/lib/armv7-m\libc.a(lib_a-errno.o)
 .bss           0x00000000        0x0 c:/program files (x86)/atollic/truestudio for stm32 9.1.0/armtools/bin/../lib/gcc/arm-atollic-eabi/6.3.1/../../../../arm-atollic-eabi/lib/armv7-m\libc.a(lib_a-errno.o)
 .text          0x00000000        0x0 c:/program files (x86)/atollic/truestudio for stm32 9.1.0/armtools/bin/../lib/gcc/arm-atollic-eabi/6.3.1/../../../../arm-atollic-eabi/lib/armv7-m\libc.a(lib_a-impure.o)
 .data          0x00000000        0x0 c:/program files (x86)/atollic/truestudio for stm32 9.1.0/armtools/bin/../lib/gcc/arm-atollic-eabi/6.3.1/../../../../arm-atollic-eabi/lib/armv7-m\libc.a(lib_a-impure.o)
 .bss           0x00000000        0x0 c:/program files (x86)/atollic/truestudio for stm32 9.1.0/armtools/bin/../lib/gcc/arm-atollic-eabi/6.3.1/../../../../arm-atollic-eabi/lib/armv7-m\libc.a(lib_a-impure.o)
 .rodata._global_impure_ptr
                0x00000000        0x4 c:/program files (x86)/atollic/truestudio for stm32 9.1.0/armtools/bin/../lib/gcc/arm-atollic-eabi/6.3.1/../../../../arm-atollic-eabi/lib/armv7-m\libc.a(lib_a-impure.o)
 .data          0x00000000        0x0 c:/program files (x86)/atollic/truestudio for stm32 9.1.0/armtools/bin/../lib/gcc/arm-atollic-eabi/6.3.1/armv7-m\libgcc.a(_arm_addsubdf3.o)
 .bss           0x00000000        0x0 c:/program files (x86)/atollic/truestudio for stm32 9.1.0/armtools/bin/../lib/gcc/arm-atollic-eabi/6.3.1/armv7-m\libgcc.a(_arm_addsubdf3.o)
 .data          0x00000000        0x0 c:/program files (x86)/atollic/truestudio for stm32 9.1.0/armtools/bin/../lib/gcc/arm-atollic-eabi/6.3.1/armv7-m\libgcc.a(_arm_muldivdf3.o)
 .bss           0x00000000        0x0 c:/program files (x86)/atollic/truestudio for stm32 9.1.0/armtools/bin/../lib/gcc/arm-atollic-eabi/6.3.1/armv7-m\libgcc.a(_arm_muldivdf3.o)
 .data          0x00000000        0x0 c:/program files (x86)/atollic/truestudio for stm32 9.1.0/armtools/bin/../lib/gcc/arm-atollic-eabi/6.3.1/armv7-m\libgcc.a(_arm_cmpdf2.o)
 .bss           0x00000000        0x0 c:/program files (x86)/atollic/truestudio for stm32 9.1.0/armtools/bin/../lib/gcc/arm-atollic-eabi/6.3.1/armv7-m\libgcc.a(_arm_cmpdf2.o)
 .data          0x00000000        0x0 c:/program files (x86)/atollic/truestudio for stm32 9.1.0/armtools/bin/../lib/gcc/arm-atollic-eabi/6.3.1/armv7-m\libgcc.a(_arm_truncdfsf2.o)
 .bss           0x00000000        0x0 c:/program files (x86)/atollic/truestudio for stm32 9.1.0/armtools/bin/../lib/gcc/arm-atollic-eabi/6.3.1/armv7-m\libgcc.a(_arm_truncdfsf2.o)
 .data          0x00000000        0x0 c:/program files (x86)/atollic/truestudio for stm32 9.1.0/armtools/bin/../lib/gcc/arm-atollic-eabi/6.3.1/armv7-m\libgcc.a(_arm_addsubsf3.o)
 .bss           0x00000000        0x0 c:/program files (x86)/atollic/truestudio for stm32 9.1.0/armtools/bin/../lib/gcc/arm-atollic-eabi/6.3.1/armv7-m\libgcc.a(_arm_addsubsf3.o)
 .data          0x00000000        0x0 c:/program files (x86)/atollic/truestudio for stm32 9.1.0/armtools/bin/../lib/gcc/arm-atollic-eabi/6.3.1/armv7-m\libgcc.a(_arm_muldivsf3.o)
 .bss           0x00000000        0x0 c:/program files (x86)/atollic/truestudio for stm32 9.1.0/armtools/bin/../lib/gcc/arm-atollic-eabi/6.3.1/armv7-m\libgcc.a(_arm_muldivsf3.o)
 .data          0x00000000        0x0 c:/program files (x86)/atollic/truestudio for stm32 9.1.0/armtools/bin/../lib/gcc/arm-atollic-eabi/6.3.1/armv7-m\libgcc.a(_arm_cmpsf2.o)
 .bss           0x00000000        0x0 c:/program files (x86)/atollic/truestudio for stm32 9.1.0/armtools/bin/../lib/gcc/arm-atollic-eabi/6.3.1/armv7-m\libgcc.a(_arm_cmpsf2.o)
 .data          0x00000000        0x0 c:/program files (x86)/atollic/truestudio for stm32 9.1.0/armtools/bin/../lib/gcc/arm-atollic-eabi/6.3.1/armv7-m\libgcc.a(_arm_unordsf2.o)
 .bss           0x00000000        0x0 c:/program files (x86)/atollic/truestudio for stm32 9.1.0/armtools/bin/../lib/gcc/arm-atollic-eabi/6.3.1/armv7-m\libgcc.a(_arm_unordsf2.o)
 .data          0x00000000        0x0 c:/program files (x86)/atollic/truestudio for stm32 9.1.0/armtools/bin/../lib/gcc/arm-atollic-eabi/6.3.1/armv7-m\libgcc.a(_arm_fixsfsi.o)
 .bss           0x00000000        0x0 c:/program files (x86)/atollic/truestudio for stm32 9.1.0/armtools/bin/../lib/gcc/arm-atollic-eabi/6.3.1/armv7-m\libgcc.a(_arm_fixsfsi.o)
 .data          0x00000000        0x0 c:/program files (x86)/atollic/truestudio for stm32 9.1.0/armtools/bin/../lib/gcc/arm-atollic-eabi/6.3.1/armv7-m\libgcc.a(_arm_fixunssfsi.o)
 .bss           0x00000000        0x0 c:/program files (x86)/atollic/truestudio for stm32 9.1.0/armtools/bin/../lib/gcc/arm-atollic-eabi/6.3.1/armv7-m\libgcc.a(_arm_fixunssfsi.o)
 .text          0x00000000        0x0 c:/program files (x86)/atollic/truestudio for stm32 9.1.0/armtools/bin/../lib/gcc/arm-atollic-eabi/6.3.1/armv7-m/crtend.o
 .data          0x00000000        0x0 c:/program files (x86)/atollic/truestudio for stm32 9.1.0/armtools/bin/../lib/gcc/arm-atollic-eabi/6.3.1/armv7-m/crtend.o
 .bss           0x00000000        0x0 c:/program files (x86)/atollic/truestudio for stm32 9.1.0/armtools/bin/../lib/gcc/arm-atollic-eabi/6.3.1/armv7-m/crtend.o
 .eh_frame      0x00000000        0x4 c:/program files (x86)/atollic/truestudio for stm32 9.1.0/armtools/bin/../lib/gcc/arm-atollic-eabi/6.3.1/armv7-m/crtend.o
 .ARM.attributes
                0x00000000       0x2d c:/program files (x86)/atollic/truestudio for stm32 9.1.0/armtools/bin/../lib/gcc/arm-atollic-eabi/6.3.1/armv7-m/crtend.o
 .text          0x00000000        0x0 c:/program files (x86)/atollic/truestudio for stm32 9.1.0/armtools/bin/../lib/gcc/arm-atollic-eabi/6.3.1/armv7-m/crtn.o
 .data          0x00000000        0x0 c:/program files (x86)/atollic/truestudio for stm32 9.1.0/armtools/bin/../lib/gcc/arm-atollic-eabi/6.3.1/armv7-m/crtn.o
 .bss           0x00000000        0x0 c:/program files (x86)/atollic/truestudio for stm32 9.1.0/armtools/bin/../lib/gcc/arm-atollic-eabi/6.3.1/armv7-m/crtn.o

Memory Configuration

Name             Origin             Length             Attributes
FLASH            0x08000000         0x00010000         xr
RAM              0x20000000         0x00005000         xrw
MEMORY_B1        0x60000000         0x00000000         xr
*default*        0x00000000         0xffffffff

Linker script and memory map

LOAD c:/program files (x86)/atollic/truestudio for stm32 9.1.0/armtools/bin/../lib/gcc/arm-atollic-eabi/6.3.1/armv7-m/crti.o
LOAD c:/program files (x86)/atollic/truestudio for stm32 9.1.0/armtools/bin/../lib/gcc/arm-atollic-eabi/6.3.1/armv7-m/crtbegin.o
LOAD Libraries\STM32F10x_StdPeriph_Driver\src\misc.o
LOAD Libraries\STM32F10x_StdPeriph_Driver\src\stm32f10x_adc.o
LOAD Libraries\STM32F10x_StdPeriph_Driver\src\stm32f10x_bkp.o
LOAD Libraries\STM32F10x_StdPeriph_Driver\src\stm32f10x_can.o
LOAD Libraries\STM32F10x_StdPeriph_Driver\src\stm32f10x_cec.o
LOAD Libraries\STM32F10x_StdPeriph_Driver\src\stm32f10x_crc.o
LOAD Libraries\STM32F10x_StdPeriph_Driver\src\stm32f10x_dac.o
LOAD Libraries\STM32F10x_StdPeriph_Driver\src\stm32f10x_dbgmcu.o
LOAD Libraries\STM32F10x_StdPeriph_Driver\src\stm32f10x_dma.o
LOAD Libraries\STM32F10x_StdPeriph_Driver\src\stm32f10x_exti.o
LOAD Libraries\STM32F10x_StdPeriph_Driver\src\stm32f10x_flash.o
LOAD Libraries\STM32F10x_StdPeriph_Driver\src\stm32f10x_fsmc.o
LOAD Libraries\STM32F10x_StdPeriph_Driver\src\stm32f10x_gpio.o
LOAD Libraries\STM32F10x_StdPeriph_Driver\src\stm32f10x_i2c.o
LOAD Libraries\STM32F10x_StdPeriph_Driver\src\stm32f10x_iwdg.o
LOAD Libraries\STM32F10x_StdPeriph_Driver\src\stm32f10x_pwr.o
LOAD Libraries\STM32F10x_StdPeriph_Driver\src\stm32f10x_rcc.o
LOAD Libraries\STM32F10x_StdPeriph_Driver\src\stm32f10x_rtc.o
LOAD Libraries\STM32F10x_StdPeriph_Driver\src\stm32f10x_sdio.o
LOAD Libraries\STM32F10x_StdPeriph_Driver\src\stm32f10x_spi.o
LOAD Libraries\STM32F10x_StdPeriph_Driver\src\stm32f10x_tim.o
LOAD Libraries\STM32F10x_StdPeriph_Driver\src\stm32f10x_usart.o
LOAD Libraries\STM32F10x_StdPeriph_Driver\src\stm32f10x_wwdg.o
LOAD src\coolant_control.o
LOAD src\eeprom.o
LOAD src\gcode.o
LOAD src\jog.o
LOAD src\limits.o
LOAD src\main.o
LOAD src\motion_control.o
LOAD src\nuts_bolts.o
LOAD src\planner.o
LOAD src\print.o
LOAD src\probe.o
LOAD src\protocol.o
LOAD src\report.o
LOAD src\serial.o
LOAD src\settings.o
LOAD src\spindle_control.o
LOAD src\startup_stm32f10x_md.o
LOAD src\stepper.o
LOAD src\system.o
LOAD src\system_stm32f10x.o
LOAD stm_usb_fs_lib\src\usb_core.o
LOAD stm_usb_fs_lib\src\usb_init.o
LOAD stm_usb_fs_lib\src\usb_int.o
LOAD stm_usb_fs_lib\src\usb_mem.o
LOAD stm_usb_fs_lib\src\usb_regs.o
LOAD stm_usb_fs_lib\src\usb_sil.o
LOAD usb\hw_config.o
LOAD usb\usb_desc.o
LOAD usb\usb_endp.o
LOAD usb\usb_istr.o
LOAD usb\usb_prop.o
LOAD usb\usb_pwr.o
LOAD util\stm32f10x_it.o
                0x00000080                malloc_getpagesize_P = 0x80
START GROUP
LOAD c:/program files (x86)/atollic/truestudio for stm32 9.1.0/armtools/bin/../lib/gcc/arm-atollic-eabi/6.3.1/../../../../arm-atollic-eabi/lib/armv7-m\libc.a
LOAD c:/program files (x86)/atollic/truestudio for stm32 9.1.0/armtools/bin/../lib/gcc/arm-atollic-eabi/6.3.1/../../../../arm-atollic-eabi/lib/armv7-m\libm.a
END GROUP
START GROUP
LOAD c:/program files (x86)/atollic/truestudio for stm32 9.1.0/armtools/bin/../lib/gcc/arm-atollic-eabi/6.3.1/armv7-m\libgcc.a
LOAD c:/program files (x86)/atollic/truestudio for stm32 9.1.0/armtools/bin/../lib/gcc/arm-atollic-eabi/6.3.1/../../../../arm-atollic-eabi/lib/armv7-m\libc.a
END GROUP
START GROUP
LOAD c:/program files (x86)/atollic/truestudio for stm32 9.1.0/armtools/bin/../lib/gcc/arm-atollic-eabi/6.3.1/armv7-m\libgcc.a
LOAD c:/program files (x86)/atollic/truestudio for stm32 9.1.0/armtools/bin/../lib/gcc/arm-atollic-eabi/6.3.1/../../../../arm-atollic-eabi/lib/armv7-m\libc.a
LOAD c:/program files (x86)/atollic/truestudio for stm32 9.1.0/armtools/bin/../lib/gcc/arm-atollic-eabi/6.3.1/../../../../arm-atollic-eabi/lib/armv7-m\libnosys.a
END GROUP
LOAD c:/program files (x86)/atollic/truestudio for stm32 9.1.0/armtools/bin/../lib/gcc/arm-atollic-eabi/6.3.1/armv7-m/crtend.o
LOAD c:/program files (x86)/atollic/truestudio for stm32 9.1.0/armtools/bin/../lib/gcc/arm-atollic-eabi/6.3.1/armv7-m/crtn.o
                0x20005000                _estack = 0x20005000
                0x00000080                _Min_Heap_Size = 0x80
                0x00000200                _Min_Stack_Size = 0x200

.isr_vector     0x08000000      0x10c
                0x08000000                . = ALIGN (0x4)
 *(.isr_vector)
 .isr_vector    0x08000000      0x10c src\startup_stm32f10x_md.o
                0x08000000                g_pfnVectors
                0x0800010c                . = ALIGN (0x4)

.text           0x08000110     0xbcf8
                0x08000110                . = ALIGN (0x4)
 *(.text)
 .text          0x08000110       0x40 c:/program files (x86)/atollic/truestudio for stm32 9.1.0/armtools/bin/../lib/gcc/arm-atollic-eabi/6.3.1/armv7-m/crtbegin.o
 .text          0x08000150      0x370 c:/program files (x86)/atollic/truestudio for stm32 9.1.0/armtools/bin/../lib/gcc/arm-atollic-eabi/6.3.1/armv7-m\libgcc.a(_arm_addsubdf3.o)
                0x08000150                __aeabi_drsub
                0x08000158                __aeabi_dsub
                0x08000158                __subdf3
                0x0800015c                __aeabi_dadd
                0x0800015c                __adddf3
                0x080003d4                __floatunsidf
                0x080003d4                __aeabi_ui2d
                0x080003f4                __floatsidf
                0x080003f4                __aeabi_i2d
                0x08000418                __aeabi_f2d
                0x08000418                __extendsfdf2
                0x08000454                __floatundidf
                0x08000454                __aeabi_ul2d
                0x08000464                __floatdidf
                0x08000464                __aeabi_l2d
 .text          0x080004c0      0x424 c:/program files (x86)/atollic/truestudio for stm32 9.1.0/armtools/bin/../lib/gcc/arm-atollic-eabi/6.3.1/armv7-m\libgcc.a(_arm_muldivdf3.o)
                0x080004c0                __aeabi_dmul
                0x080004c0                __muldf3
                0x08000714                __divdf3
                0x08000714                __aeabi_ddiv
 .text          0x080008e4      0x110 c:/program files (x86)/atollic/truestudio for stm32 9.1.0/armtools/bin/../lib/gcc/arm-atollic-eabi/6.3.1/armv7-m\libgcc.a(_arm_cmpdf2.o)
                0x080008e4                __gtdf2
                0x080008e4                __gedf2
                0x080008ec                __ltdf2
                0x080008ec                __ledf2
                0x080008f4                __nedf2
                0x080008f4                __eqdf2
                0x080008f4                __cmpdf2
                0x08000970                __aeabi_cdrcmple
                0x08000980                __aeabi_cdcmpeq
                0x08000980                __aeabi_cdcmple
                0x08000990                __aeabi_dcmpeq
                0x080009a4                __aeabi_dcmplt
                0x080009b8                __aeabi_dcmple
                0x080009cc                __aeabi_dcmpge
                0x080009e0                __aeabi_dcmpgt
 .text          0x080009f4       0xa0 c:/program files (x86)/atollic/truestudio for stm32 9.1.0/armtools/bin/../lib/gcc/arm-atollic-eabi/6.3.1/armv7-m\libgcc.a(_arm_truncdfsf2.o)
                0x080009f4                __truncdfsf2
                0x080009f4                __aeabi_d2f
 .text          0x08000a94      0x21c c:/program files (x86)/atollic/truestudio for stm32 9.1.0/armtools/bin/../lib/gcc/arm-atollic-eabi/6.3.1/armv7-m\libgcc.a(_arm_addsubsf3.o)
                0x08000a94                __aeabi_frsub
                0x08000a9c                __subsf3
                0x08000a9c                __aeabi_fsub
                0x08000aa0                __aeabi_fadd
                0x08000aa0                __addsf3
                0x08000c00                __aeabi_ui2f
                0x08000c00                __floatunsisf
                0x08000c08                __aeabi_i2f
                0x08000c08                __floatsisf
                0x08000c24                __aeabi_ul2f
                0x08000c24                __floatundisf
                0x08000c34                __aeabi_l2f
                0x08000c34                __floatdisf
 .text          0x08000cb0      0x2a0 c:/program files (x86)/atollic/truestudio for stm32 9.1.0/armtools/bin/../lib/gcc/arm-atollic-eabi/6.3.1/armv7-m\libgcc.a(_arm_muldivsf3.o)
                0x08000cb0                __mulsf3
                0x08000cb0                __aeabi_fmul
                0x08000e18                __aeabi_fdiv
                0x08000e18                __divsf3
 .text          0x08000f50       0xec c:/program files (x86)/atollic/truestudio for stm32 9.1.0/armtools/bin/../lib/gcc/arm-atollic-eabi/6.3.1/armv7-m\libgcc.a(_arm_cmpsf2.o)
                0x08000f50                __gesf2
                0x08000f50                __gtsf2
                0x08000f58                __lesf2
                0x08000f58                __ltsf2
                0x08000f60                __nesf2
                0x08000f60                __eqsf2
                0x08000f60                __cmpsf2
                0x08000fc0                __aeabi_cfrcmple
                0x08000fc8                __aeabi_cfcmpeq
                0x08000fc8                __aeabi_cfcmple
                0x08000fd8                __aeabi_fcmpeq
                0x08000fec                __aeabi_fcmplt
                0x08001000                __aeabi_fcmple
                0x08001014                __aeabi_fcmpge
                0x08001028                __aeabi_fcmpgt
 .text          0x0800103c       0x2c c:/program files (x86)/atollic/truestudio for stm32 9.1.0/armtools/bin/../lib/gcc/arm-atollic-eabi/6.3.1/armv7-m\libgcc.a(_arm_unordsf2.o)
                0x0800103c                __unordsf2
                0x0800103c                __aeabi_fcmpun
 .text          0x08001068       0x4c c:/program files (x86)/atollic/truestudio for stm32 9.1.0/armtools/bin/../lib/gcc/arm-atollic-eabi/6.3.1/armv7-m\libgcc.a(_arm_fixsfsi.o)
                0x08001068                __aeabi_f2iz
                0x08001068                __fixsfsi
 .text          0x080010b4       0x40 c:/program files (x86)/atollic/truestudio for stm32 9.1.0/armtools/bin/../lib/gcc/arm-atollic-eabi/6.3.1/armv7-m\libgcc.a(_arm_fixunssfsi.o)
                0x080010b4                __fixunssfsi
                0x080010b4                __aeabi_f2uiz
 *(.text*)
 .text.NVIC_PriorityGroupConfig
                0x080010f4       0x14 Libraries\STM32F10x_StdPeriph_Driver\src\misc.o
                0x080010f4                NVIC_PriorityGroupConfig
 .text.NVIC_Init
                0x08001108       0x64 Libraries\STM32F10x_StdPeriph_Driver\src\misc.o
                0x08001108                NVIC_Init
 .text.EXTI_Init
                0x0800116c       0x7c Libraries\STM32F10x_StdPeriph_Driver\src\stm32f10x_exti.o
                0x0800116c                EXTI_Init
 .text.EXTI_GetITStatus
                0x080011e8       0x1c Libraries\STM32F10x_StdPeriph_Driver\src\stm32f10x_exti.o
                0x080011e8                EXTI_GetITStatus
 .text.EXTI_ClearITPendingBit
                0x08001204        0xc Libraries\STM32F10x_StdPeriph_Driver\src\stm32f10x_exti.o
                0x08001204                EXTI_ClearITPendingBit
 .text.FLASH_Unlock
                0x08001210       0x18 Libraries\STM32F10x_StdPeriph_Driver\src\stm32f10x_flash.o
                0x08001210                FLASH_Unlock
 .text.FLASH_ErasePage
                0x08001228       0xec Libraries\STM32F10x_StdPeriph_Driver\src\stm32f10x_flash.o
                0x08001228                FLASH_ErasePage
 .text.FLASH_ProgramHalfWord
                0x08001314       0xec Libraries\STM32F10x_StdPeriph_Driver\src\stm32f10x_flash.o
                0x08001314                FLASH_ProgramHalfWord
 .text.GPIO_Init
                0x08001400      0x36c Libraries\STM32F10x_StdPeriph_Driver\src\stm32f10x_gpio.o
                0x08001400                GPIO_Init
 .text.GPIO_ReadInputData
                0x0800176c        0x8 Libraries\STM32F10x_StdPeriph_Driver\src\stm32f10x_gpio.o
                0x0800176c                GPIO_ReadInputData
 .text.GPIO_ReadOutputData
                0x08001774        0x8 Libraries\STM32F10x_StdPeriph_Driver\src\stm32f10x_gpio.o
                0x08001774                GPIO_ReadOutputData
 .text.GPIO_SetBits
                0x0800177c        0x4 Libraries\STM32F10x_StdPeriph_Driver\src\stm32f10x_gpio.o
                0x0800177c                GPIO_SetBits
 .text.GPIO_ResetBits
                0x08001780        0x4 Libraries\STM32F10x_StdPeriph_Driver\src\stm32f10x_gpio.o
                0x08001780                GPIO_ResetBits
 .text.GPIO_WriteBit
                0x08001784        0xc Libraries\STM32F10x_StdPeriph_Driver\src\stm32f10x_gpio.o
                0x08001784                GPIO_WriteBit
 .text.GPIO_PinRemapConfig
                0x08001790       0x6c Libraries\STM32F10x_StdPeriph_Driver\src\stm32f10x_gpio.o
                0x08001790                GPIO_PinRemapConfig
 .text.GPIO_EXTILineConfig
                0x080017fc       0x30 Libraries\STM32F10x_StdPeriph_Driver\src\stm32f10x_gpio.o
                0x080017fc                GPIO_EXTILineConfig
 .text.RCC_USBCLKConfig
                0x0800182c        0xc Libraries\STM32F10x_StdPeriph_Driver\src\stm32f10x_rcc.o
                0x0800182c                RCC_USBCLKConfig
 .text.RCC_APB2PeriphClockCmd
                0x08001838       0x18 Libraries\STM32F10x_StdPeriph_Driver\src\stm32f10x_rcc.o
                0x08001838                RCC_APB2PeriphClockCmd
 .text.RCC_APB1PeriphClockCmd
                0x08001850       0x18 Libraries\STM32F10x_StdPeriph_Driver\src\stm32f10x_rcc.o
                0x08001850                RCC_APB1PeriphClockCmd
 .text.TIM_TimeBaseInit
                0x08001868       0xac Libraries\STM32F10x_StdPeriph_Driver\src\stm32f10x_tim.o
                0x08001868                TIM_TimeBaseInit
 .text.TIM_OC1Init
                0x08001914       0x90 Libraries\STM32F10x_StdPeriph_Driver\src\stm32f10x_tim.o
                0x08001914                TIM_OC1Init
 .text.TIM_TimeBaseStructInit
                0x080019a4       0x10 Libraries\STM32F10x_StdPeriph_Driver\src\stm32f10x_tim.o
                0x080019a4                TIM_TimeBaseStructInit
 .text.TIM_Cmd  0x080019b4       0x1c Libraries\STM32F10x_StdPeriph_Driver\src\stm32f10x_tim.o
                0x080019b4                TIM_Cmd
 .text.TIM_CtrlPWMOutputs
                0x080019d0       0x20 Libraries\STM32F10x_StdPeriph_Driver\src\stm32f10x_tim.o
                0x080019d0                TIM_CtrlPWMOutputs
 .text.TIM_ITConfig
                0x080019f0       0x14 Libraries\STM32F10x_StdPeriph_Driver\src\stm32f10x_tim.o
                0x080019f0                TIM_ITConfig
 .text.TIM_OC1PreloadConfig
                0x08001a04       0x10 Libraries\STM32F10x_StdPeriph_Driver\src\stm32f10x_tim.o
                0x08001a04                TIM_OC1PreloadConfig
 .text.TIM_ClearITPendingBit
                0x08001a14        0x8 Libraries\STM32F10x_StdPeriph_Driver\src\stm32f10x_tim.o
                0x08001a14                TIM_ClearITPendingBit
 .text.coolant_init
                0x08001a1c       0x64 src\coolant_control.o
                0x08001a1c                coolant_init
 .text.coolant_get_state
                0x08001a80       0x24 src\coolant_control.o
                0x08001a80                coolant_get_state
 .text.coolant_stop
                0x08001aa4       0x1c src\coolant_control.o
                0x08001aa4                coolant_stop
 .text.coolant_set_state
                0x08001ac0       0x48 src\coolant_control.o
                0x08001ac0                coolant_set_state
 .text.coolant_sync
                0x08001b08       0x54 src\coolant_control.o
                0x08001b08                coolant_sync
 .text.eeprom_init
                0x08001b5c       0x3c src\eeprom.o
                0x08001b5c                eeprom_init
 .text.eeprom_get_char
                0x08001b98        0xc src\eeprom.o
                0x08001b98                eeprom_get_char
 .text.eeprom_put_char
                0x08001ba4        0xc src\eeprom.o
                0x08001ba4                eeprom_put_char
 .text.memcpy_to_eeprom_with_checksum
                0x08001bb0       0xa4 src\eeprom.o
                0x08001bb0                memcpy_to_eeprom_with_checksum
 .text.memcpy_from_eeprom_with_checksum
                0x08001c54       0x44 src\eeprom.o
                0x08001c54                memcpy_from_eeprom_with_checksum
 .text.gc_init  0x08001c98       0x2c src\gcode.o
                0x08001c98                gc_init
 .text.gc_sync_position
                0x08001cc4       0x10 src\gcode.o
                0x08001cc4                gc_sync_position
 .text.gc_execute_line
                0x08001cd4     0x1268 src\gcode.o
                0x08001cd4                gc_execute_line
 .text.jog_execute
                0x08002f3c       0x60 src\jog.o
                0x08002f3c                jog_execute
 .text.limits_init
                0x08002f9c       0xa8 src\limits.o
                0x08002f9c                limits_init
 .text.limits_disable
                0x08003044       0x10 src\limits.o
                0x08003044                limits_disable
 .text.limits_get_state
                0x08003054       0x5c src\limits.o
                0x08003054                limits_get_state
 .text.EXTI15_10_IRQHandler
                0x080030b0       0x88 src\limits.o
                0x080030b0                EXTI15_10_IRQHandler
 .text.limits_go_home
                0x08003138      0x4b0 src\limits.o
                0x08003138                limits_go_home
 .text.limits_soft_check
                0x080035e8       0x44 src\limits.o
                0x080035e8                limits_soft_check
 .text.startup.main
                0x0800362c      0x11c src\main.o
                0x0800362c                main
 .text._delay_ms
                0x08003748       0x30 src\main.o
                0x08003748                _delay_ms
 .text.LedBlink
                0x08003778       0x28 src\main.o
                0x08003778                LedBlink
 .text.mc_line  0x080037a0       0x68 src\motion_control.o
                0x080037a0                mc_line
 .text.mc_arc   0x08003808      0x404 src\motion_control.o
                0x08003808                mc_arc
 .text.mc_dwell
                0x08003c0c       0x24 src\motion_control.o
                0x08003c0c                mc_dwell
 .text.mc_homing_cycle
                0x08003c30       0x48 src\motion_control.o
                0x08003c30                mc_homing_cycle
 .text.mc_probe_cycle
                0x08003c78      0x124 src\motion_control.o
                0x08003c78                mc_probe_cycle
 .text.mc_reset
                0x08003d9c       0x60 src\motion_control.o
                0x08003d9c                mc_reset
 .text.read_float
                0x08003dfc      0x110 src\nuts_bolts.o
                0x08003dfc                read_float
 .text.delay_sec
                0x08003f0c       0x70 src\nuts_bolts.o
                0x08003f0c                delay_sec
 .text.delay_ms
                0x08003f7c       0x20 src\nuts_bolts.o
                0x08003f7c                delay_ms
 .text.hypot_f  0x08003f9c       0x24 src\nuts_bolts.o
                0x08003f9c                hypot_f
 .text.convert_delta_vector_to_unit_vector
                0x08003fc0       0xd0 src\nuts_bolts.o
                0x08003fc0                convert_delta_vector_to_unit_vector
 .text.limit_value_by_axis_maximum
                0x08004090       0xac src\nuts_bolts.o
                0x08004090                limit_value_by_axis_maximum
 .text.planner_recalculate
                0x0800413c      0x1f8 src\planner.o
 .text.plan_reset
                0x08004334       0x38 src\planner.o
                0x08004334                plan_reset
 .text.plan_discard_current_block
                0x0800436c       0x34 src\planner.o
                0x0800436c                plan_discard_current_block
 .text.plan_get_system_motion_block
                0x080043a0       0x18 src\planner.o
                0x080043a0                plan_get_system_motion_block
 .text.plan_get_current_block
                0x080043b8       0x28 src\planner.o
                0x080043b8                plan_get_current_block
 .text.plan_get_exec_block_exit_speed_sqr
                0x080043e0       0x34 src\planner.o
                0x080043e0                plan_get_exec_block_exit_speed_sqr
 .text.plan_check_full_buffer
                0x08004414       0x1c src\planner.o
                0x08004414                plan_check_full_buffer
 .text.plan_compute_profile_nominal_speed
                0x08004430       0x6c src\planner.o
                0x08004430                plan_compute_profile_nominal_speed
 .text.plan_update_velocity_profile_parameters
                0x0800449c       0xf8 src\planner.o
                0x0800449c                plan_update_velocity_profile_parameters
 .text.plan_buffer_line
                0x08004594      0x4c4 src\planner.o
                0x08004594                plan_buffer_line
 .text.plan_sync_position
                0x08004a58       0x18 src\planner.o
                0x08004a58                plan_sync_position
 .text.plan_get_block_buffer_available
                0x08004a70       0x24 src\planner.o
                0x08004a70                plan_get_block_buffer_available
 .text.plan_cycle_reinitialize
                0x08004a94       0x20 src\planner.o
                0x08004a94                plan_cycle_reinitialize
 .text.printString
                0x08004ab4       0x18 src\print.o
                0x08004ab4                printString
 .text.print_uint8_base10
                0x08004acc       0x84 src\print.o
                0x08004acc                print_uint8_base10
 .text.printFloat
                0x08004b50       0xe4 src\print.o
                0x08004b50                printFloat
 .text.printFloat_CoordValue
                0x08004c34      0x1d0 src\print.o
                0x08004c34                printFloat_CoordValue
 .text.printFloat_RateValue
                0x08004e04      0x148 src\print.o
                0x08004e04                printFloat_RateValue
 .text.probe_init
                0x08004f4c       0x4c src\probe.o
                0x08004f4c                probe_init
 .text.probe_configure_invert_mask
                0x08004f98       0x28 src\probe.o
                0x08004f98                probe_configure_invert_mask
 .text.probe_get_state
                0x08004fc0       0x20 src\probe.o
                0x08004fc0                probe_get_state
 .text.probe_state_monitor
                0x08004fe0       0x48 src\probe.o
                0x08004fe0                probe_state_monitor
 .text.protocol_auto_cycle_start
                0x08005028       0x14 src\protocol.o
                0x08005028                protocol_auto_cycle_start
 .text.protocol_exec_rt_system
                0x0800503c      0x3d4 src\protocol.o
                0x0800503c                protocol_exec_rt_system
 .text.protocol_exec_rt_suspend
                0x08005410      0x670 src\protocol.o
 .text.protocol_execute_realtime
                0x08005a80      0x3e4 src\protocol.o
                0x08005a80                protocol_execute_realtime
 .text.protocol_buffer_synchronize
                0x08005e64      0x478 src\protocol.o
                0x08005e64                protocol_buffer_synchronize
 .text.protocol_main_loop
                0x080062dc      0x174 src\protocol.o
                0x080062dc                protocol_main_loop
 .text.report_status_message
                0x08006450       0x30 src\report.o
                0x08006450                report_status_message
 .text.report_alarm_message
                0x08006480       0x2c src\report.o
                0x08006480                report_alarm_message
 .text.report_feedback_message
                0x080064ac       0xbc src\report.o
                0x080064ac                report_feedback_message
 .text.report_init_message
                0x08006568        0xc src\report.o
                0x08006568                report_init_message
 .text.report_grbl_help
                0x08006574        0xc src\report.o
                0x08006574                report_grbl_help
 .text.report_grbl_settings
                0x08006580      0x5ec src\report.o
                0x08006580                report_grbl_settings
 .text.report_probe_parameters
                0x08006b6c       0x6c src\report.o
                0x08006b6c                report_probe_parameters
 .text.report_ngc_parameters
                0x08006bd8      0x17c src\report.o
                0x08006bd8                report_ngc_parameters
 .text.report_gcode_modes
                0x08006d54      0x170 src\report.o
                0x08006d54                report_gcode_modes
 .text.report_startup_line
                0x08006ec4       0x30 src\report.o
                0x08006ec4                report_startup_line
 .text.report_execute_startup_message
                0x08006ef4       0x48 src\report.o
                0x08006ef4                report_execute_startup_message
 .text.report_build_info
                0x08006f3c       0x64 src\report.o
                0x08006f3c                report_build_info
 .text.report_realtime_status
                0x08006fa0      0x3e4 src\report.o
                0x08006fa0                report_realtime_status
 .text.serial_get_rx_buffer_available
                0x08007384       0x24 src\serial.o
                0x08007384                serial_get_rx_buffer_available
 .text.serial_init
                0x080073a8        0x4 src\serial.o
                0x080073a8                serial_init
 .text.serial_write
                0x080073ac       0x54 src\serial.o
                0x080073ac                serial_write
 .text.serial_read
                0x08007400       0x30 src\serial.o
                0x08007400                serial_read
 .text.OnUsbDataRx
                0x08007430      0x1a4 src\serial.o
                0x08007430                OnUsbDataRx
 .text.serial_reset_read_buffer
                0x080075d4       0x14 src\serial.o
                0x080075d4                serial_reset_read_buffer
 .text.settings_store_startup_line
                0x080075e8       0x24 src\settings.o
                0x080075e8                settings_store_startup_line
 .text.settings_store_build_info
                0x0800760c        0xc src\settings.o
                0x0800760c                settings_store_build_info
 .text.settings_write_coord_data
                0x08007618       0x20 src\settings.o
                0x08007618                settings_write_coord_data
 .text.settings_restore
                0x08007638      0x130 src\settings.o
                0x08007638                settings_restore
 .text.settings_read_startup_line
                0x08007768       0x38 src\settings.o
                0x08007768                settings_read_startup_line
 .text.settings_read_build_info
                0x080077a0       0x28 src\settings.o
                0x080077a0                settings_read_build_info
 .text.settings_read_coord_data
                0x080077c8       0x3c src\settings.o
                0x080077c8                settings_read_coord_data
 .text.settings_store_global_setting
                0x08007804      0x2b4 src\settings.o
                0x08007804                settings_store_global_setting
 .text.settings_init
                0x08007ab8      0x138 src\settings.o
                0x08007ab8                settings_init
 .text.spindle_init
                0x08007bf0      0x108 src\spindle_control.o
                0x08007bf0                spindle_init
 .text.spindle_get_state
                0x08007cf8       0x18 src\spindle_control.o
                0x08007cf8                spindle_get_state
 .text.spindle_stop
                0x08007d10        0xc src\spindle_control.o
                0x08007d10                spindle_stop
 .text.spindle_set_speed
                0x08007d1c       0x14 src\spindle_control.o
                0x08007d1c                spindle_set_speed
 .text.spindle_compute_pwm_value
                0x08007d30       0x8c src\spindle_control.o
                0x08007d30                spindle_compute_pwm_value
 .text.spindle_set_state
                0x08007dbc      0x104 src\spindle_control.o
                0x08007dbc                spindle_set_state
 .text.spindle_sync
                0x08007ec0      0x104 src\spindle_control.o
                0x08007ec0                spindle_sync
 .text.Reset_Handler
                0x08007fc4       0x50 src\startup_stm32f10x_md.o
                0x08007fc4                Reset_Handler
 .text.Default_Handler
                0x08008014        0x2 src\startup_stm32f10x_md.o
                0x08008014                EXTI2_IRQHandler
                0x08008014                TIM1_CC_IRQHandler
                0x08008014                SysTick_Handler
                0x08008014                PVD_IRQHandler
                0x08008014                EXTI3_IRQHandler
                0x08008014                EXTI0_IRQHandler
                0x08008014                I2C2_EV_IRQHandler
                0x08008014                ADC1_2_IRQHandler
                0x08008014                SPI1_IRQHandler
                0x08008014                TAMPER_IRQHandler
                0x08008014                DMA1_Channel4_IRQHandler
                0x08008014                USART3_IRQHandler
                0x08008014                RTC_IRQHandler
                0x08008014                DMA1_Channel7_IRQHandler
                0x08008014                CAN1_RX1_IRQHandler
                0x08008014                TIM4_IRQHandler
                0x08008014                I2C1_EV_IRQHandler
                0x08008014                DMA1_Channel6_IRQHandler
                0x08008014                RCC_IRQHandler
                0x08008014                TIM1_TRG_COM_IRQHandler
                0x08008014                DMA1_Channel1_IRQHandler
                0x08008014                Default_Handler
                0x08008014                SPI2_IRQHandler
                0x08008014                DMA1_Channel5_IRQHandler
                0x08008014                EXTI4_IRQHandler
                0x08008014                USB_HP_CAN1_TX_IRQHandler
                0x08008014                DMA1_Channel3_IRQHandler
                0x08008014                TIM1_UP_IRQHandler
                0x08008014                WWDG_IRQHandler
                0x08008014                TIM1_BRK_IRQHandler
                0x08008014                EXTI1_IRQHandler
                0x08008014                RTCAlarm_IRQHandler
                0x08008014                USART2_IRQHandler
                0x08008014                I2C2_ER_IRQHandler
                0x08008014                DMA1_Channel2_IRQHandler
                0x08008014                CAN1_SCE_IRQHandler
                0x08008014                FLASH_IRQHandler
                0x08008014                USART1_IRQHandler
                0x08008014                I2C1_ER_IRQHandler
                0x08008014                USBWakeUp_IRQHandler
 *fill*         0x08008016        0x2 
 .text.st_wake_up
                0x08008018       0x80 src\stepper.o
                0x08008018                st_wake_up
 .text.st_go_idle
                0x08008098       0x80 src\stepper.o
                0x08008098                st_go_idle
 .text.TIM2_IRQHandler
                0x08008118      0x2a0 src\stepper.o
                0x08008118                TIM2_IRQHandler
 .text.TIM3_IRQHandler
                0x080083b8       0x40 src\stepper.o
                0x080083b8                TIM3_IRQHandler
 .text.st_generate_step_dir_invert_masks
                0x080083f8       0x68 src\stepper.o
                0x080083f8                st_generate_step_dir_invert_masks
 .text.st_reset
                0x08008460      0x148 src\stepper.o
                0x08008460                st_reset
 .text.stepper_init
                0x080085a8      0x17c src\stepper.o
                0x080085a8                stepper_init
 .text.st_update_plan_block_parameters
                0x08008724       0x2c src\stepper.o
                0x08008724                st_update_plan_block_parameters
 .text.st_prep_buffer
                0x08008750      0xaac src\stepper.o
                0x08008750                st_prep_buffer
 .text.st_get_realtime_rate
                0x080091fc       0x1c src\stepper.o
                0x080091fc                st_get_realtime_rate
 .text.system_init
                0x08009218       0x88 src\system.o
                0x08009218                system_init
 .text.system_control_get_state
                0x080092a0       0x30 src\system.o
                0x080092a0                system_control_get_state
 .text.EXTI9_5_IRQHandler
                0x080092d0       0x84 src\system.o
                0x080092d0                EXTI9_5_IRQHandler
 .text.system_check_safety_door_ajar
                0x08009354        0x4 src\system.o
                0x08009354                system_check_safety_door_ajar
 .text.system_execute_startup
                0x08009358       0x38 src\system.o
                0x08009358                system_execute_startup
 .text.system_execute_line
                0x08009390      0x314 src\system.o
                0x08009390                system_execute_line
 .text.system_flag_wco_change
                0x080096a4       0x14 src\system.o
                0x080096a4                system_flag_wco_change
 .text.system_convert_array_steps_to_mpos
                0x080096b8       0x48 src\system.o
                0x080096b8                system_convert_array_steps_to_mpos
 .text.system_check_travel_limits
                0x08009700       0x78 src\system.o
                0x08009700                system_check_travel_limits
 .text.system_set_exec_state_flag
                0x08009778       0x14 src\system.o
                0x08009778                system_set_exec_state_flag
 .text.system_clear_exec_state_flag
                0x0800978c       0x14 src\system.o
                0x0800978c                system_clear_exec_state_flag
 .text.system_set_exec_alarm
                0x080097a0       0x10 src\system.o
                0x080097a0                system_set_exec_alarm
 .text.system_clear_exec_alarm
                0x080097b0       0x10 src\system.o
                0x080097b0                system_clear_exec_alarm
 .text.system_set_exec_motion_override_flag
                0x080097c0       0x14 src\system.o
                0x080097c0                system_set_exec_motion_override_flag
 .text.system_set_exec_accessory_override_flag
                0x080097d4       0x14 src\system.o
                0x080097d4                system_set_exec_accessory_override_flag
 .text.system_clear_exec_motion_overrides
                0x080097e8       0x10 src\system.o
                0x080097e8                system_clear_exec_motion_overrides
 .text.system_clear_exec_accessory_overrides
                0x080097f8       0x10 src\system.o
                0x080097f8                system_clear_exec_accessory_overrides
 .text.SystemInit
                0x08009808      0x104 src\system_stm32f10x.o
                0x08009808                SystemInit
 .text.Standard_GetConfiguration
                0x0800990c       0x28 stm_usb_fs_lib\src\usb_core.o
                0x0800990c                Standard_GetConfiguration
 .text.Standard_GetInterface
                0x08009934       0x28 stm_usb_fs_lib\src\usb_core.o
                0x08009934                Standard_GetInterface
 .text.Standard_GetStatus
                0x0800995c       0x90 stm_usb_fs_lib\src\usb_core.o
                0x0800995c                Standard_GetStatus
 .text.DataStageIn
                0x080099ec       0xb0 stm_usb_fs_lib\src\usb_core.o
 .text.Standard_ClearFeature
                0x08009a9c       0xd4 stm_usb_fs_lib\src\usb_core.o
                0x08009a9c                Standard_ClearFeature
 .text.Standard_SetEndPointFeature
                0x08009b70       0x94 stm_usb_fs_lib\src\usb_core.o
                0x08009b70                Standard_SetEndPointFeature
 .text.Standard_GetDescriptorData
                0x08009c04       0x1c stm_usb_fs_lib\src\usb_core.o
                0x08009c04                Standard_GetDescriptorData
 .text.Setup0_Process
                0x08009c20      0x3fc stm_usb_fs_lib\src\usb_core.o
                0x08009c20                Setup0_Process
 .text.In0_Process
                0x0800a01c       0xcc stm_usb_fs_lib\src\usb_core.o
                0x0800a01c                In0_Process
 .text.Out0_Process
                0x0800a0e8      0x110 stm_usb_fs_lib\src\usb_core.o
                0x0800a0e8                Out0_Process
 .text.SetDeviceAddress
                0x0800a1f8       0x40 stm_usb_fs_lib\src\usb_core.o
                0x0800a1f8                SetDeviceAddress
 .text.NOP_Process
                0x0800a238        0x4 stm_usb_fs_lib\src\usb_core.o
                0x0800a238                NOP_Process
 .text.USB_Init
                0x0800a23c       0x38 stm_usb_fs_lib\src\usb_init.o
                0x0800a23c                USB_Init
 .text.CTR_LP   0x0800a274      0x180 stm_usb_fs_lib\src\usb_int.o
                0x0800a274                CTR_LP
 .text.UserToPMABufferCopy
                0x0800a3f4       0x28 stm_usb_fs_lib\src\usb_mem.o
                0x0800a3f4                UserToPMABufferCopy
 .text.PMAToUserBufferCopy
                0x0800a41c       0x20 stm_usb_fs_lib\src\usb_mem.o
                0x0800a41c                PMAToUserBufferCopy
 .text.SetBTABLE
                0x0800a43c       0x10 stm_usb_fs_lib\src\usb_regs.o
                0x0800a43c                SetBTABLE
 .text.SetEPType
                0x0800a44c       0x1c stm_usb_fs_lib\src\usb_regs.o
                0x0800a44c                SetEPType
 .text.SetEPTxStatus
                0x0800a468       0x34 stm_usb_fs_lib\src\usb_regs.o
                0x0800a468                SetEPTxStatus
 .text.SetEPRxStatus
                0x0800a49c       0x34 stm_usb_fs_lib\src\usb_regs.o
                0x0800a49c                SetEPRxStatus
 .text.SetEPTxValid
                0x0800a4d0       0x28 stm_usb_fs_lib\src\usb_regs.o
                0x0800a4d0                SetEPTxValid
 .text.SetEPRxValid
                0x0800a4f8       0x28 stm_usb_fs_lib\src\usb_regs.o
                0x0800a4f8                SetEPRxValid
 .text.Clear_Status_Out
                0x0800a520       0x20 stm_usb_fs_lib\src\usb_regs.o
                0x0800a520                Clear_Status_Out
 .text.ClearDTOG_RX
                0x0800a540       0x24 stm_usb_fs_lib\src\usb_regs.o
                0x0800a540                ClearDTOG_RX
 .text.ClearDTOG_TX
                0x0800a564       0x24 stm_usb_fs_lib\src\usb_regs.o
                0x0800a564                ClearDTOG_TX
 .text.SetEPTxAddr
                0x0800a588       0x20 stm_usb_fs_lib\src\usb_regs.o
                0x0800a588                SetEPTxAddr
 .text.SetEPRxAddr
                0x0800a5a8       0x20 stm_usb_fs_lib\src\usb_regs.o
                0x0800a5a8                SetEPRxAddr
 .text.GetEPTxAddr
                0x0800a5c8       0x1c stm_usb_fs_lib\src\usb_regs.o
                0x0800a5c8                GetEPTxAddr
 .text.GetEPRxAddr
                0x0800a5e4       0x1c stm_usb_fs_lib\src\usb_regs.o
                0x0800a5e4                GetEPRxAddr
 .text.SetEPTxCount
                0x0800a600       0x1c stm_usb_fs_lib\src\usb_regs.o
                0x0800a600                SetEPTxCount
 .text.SetEPRxCount
                0x0800a61c       0x44 stm_usb_fs_lib\src\usb_regs.o
                0x0800a61c                SetEPRxCount
 .text.GetEPRxCount
                0x0800a660       0x20 stm_usb_fs_lib\src\usb_regs.o
                0x0800a660                GetEPRxCount
 .text.ByteSwap
                0x0800a680        0xc stm_usb_fs_lib\src\usb_regs.o
                0x0800a680                ByteSwap
 .text.USB_SIL_Init
                0x0800a68c       0x24 stm_usb_fs_lib\src\usb_sil.o
                0x0800a68c                USB_SIL_Init
 .text.USB_SIL_Read
                0x0800a6b0       0x24 stm_usb_fs_lib\src\usb_sil.o
                0x0800a6b0                USB_SIL_Read
 .text.Set_USBClock
                0x0800a6d4       0x18 usb\hw_config.o
                0x0800a6d4                Set_USBClock
 .text.USB_Interrupts_Config
                0x0800a6ec       0x24 usb\hw_config.o
                0x0800a6ec                USB_Interrupts_Config
 .text.USB_Cable_Config
                0x0800a710        0x4 usb\hw_config.o
                0x0800a710                USB_Cable_Config
 .text.Get_SerialNum
                0x0800a714       0xfc usb\hw_config.o
                0x0800a714                Get_SerialNum
 .text.EP1_IN_Callback.part.0
                0x0800a810       0xc4 usb\usb_endp.o
 .text.EP3_OUT_Callback
                0x0800a8d4       0x24 usb\usb_endp.o
                0x0800a8d4                EP3_OUT_Callback
 .text.EP1_IN_Callback
                0x0800a8f8       0x18 usb\usb_endp.o
                0x0800a8f8                EP1_IN_Callback
 .text.SOF_Callback
                0x0800a910       0x24 usb\usb_endp.o
                0x0800a910                SOF_Callback
 .text.USB_Istr
                0x0800a934       0x74 usb\usb_istr.o
                0x0800a934                USB_Istr
 .text.Virtual_Com_Port_SetConfiguration
                0x0800a9a8       0x18 usb\usb_prop.o
                0x0800a9a8                Virtual_Com_Port_SetConfiguration
 .text.Virtual_Com_Port_SetDeviceAddress
                0x0800a9c0        0xc usb\usb_prop.o
                0x0800a9c0                Virtual_Com_Port_SetDeviceAddress
 .text.Virtual_Com_Port_Status_In
                0x0800a9cc       0x14 usb\usb_prop.o
                0x0800a9cc                Virtual_Com_Port_Status_In
 .text.Virtual_Com_Port_Status_Out
                0x0800a9e0        0x4 usb\usb_prop.o
                0x0800a9e0                Virtual_Com_Port_Status_Out
 .text.Virtual_Com_Port_Data_Setup
                0x0800a9e4       0x5c usb\usb_prop.o
                0x0800a9e4                Virtual_Com_Port_Data_Setup
 .text.Virtual_Com_Port_NoData_Setup
                0x0800aa40       0x24 usb\usb_prop.o
                0x0800aa40                Virtual_Com_Port_NoData_Setup
 .text.Virtual_Com_Port_Get_Interface_Setting
                0x0800aa64       0x10 usb\usb_prop.o
                0x0800aa64                Virtual_Com_Port_Get_Interface_Setting
 .text.Virtual_Com_Port_SetLineCoding
                0x0800aa74       0x18 usb\usb_prop.o
                0x0800aa74                Virtual_Com_Port_SetLineCoding
 .text.Virtual_Com_Port_init
                0x0800aa8c       0x24 usb\usb_prop.o
                0x0800aa8c                Virtual_Com_Port_init
 .text.Virtual_Com_Port_Reset
                0x0800aab0       0xe0 usb\usb_prop.o
                0x0800aab0                Virtual_Com_Port_Reset
 .text.Virtual_Com_Port_GetDeviceDescriptor
                0x0800ab90        0xc usb\usb_prop.o
                0x0800ab90                Virtual_Com_Port_GetDeviceDescriptor
 .text.Virtual_Com_Port_GetConfigDescriptor
                0x0800ab9c        0xc usb\usb_prop.o
                0x0800ab9c                Virtual_Com_Port_GetConfigDescriptor
 .text.Virtual_Com_Port_GetStringDescriptor
                0x0800aba8       0x20 usb\usb_prop.o
                0x0800aba8                Virtual_Com_Port_GetStringDescriptor
 .text.Virtual_Com_Port_GetLineCoding
                0x0800abc8       0x18 usb\usb_prop.o
                0x0800abc8                Virtual_Com_Port_GetLineCoding
 .text.PowerOn  0x0800abe0       0x30 usb\usb_pwr.o
                0x0800abe0                PowerOn
 .text.NMI_Handler
                0x0800ac10        0x4 util\stm32f10x_it.o
                0x0800ac10                NMI_Handler
 .text.HardFault_Handler
                0x0800ac14        0x4 util\stm32f10x_it.o
                0x0800ac14                HardFault_Handler
 .text.MemManage_Handler
                0x0800ac18        0x4 util\stm32f10x_it.o
                0x0800ac18                MemManage_Handler
 .text.BusFault_Handler
                0x0800ac1c        0x4 util\stm32f10x_it.o
                0x0800ac1c                BusFault_Handler
 .text.UsageFault_Handler
                0x0800ac20        0x4 util\stm32f10x_it.o
                0x0800ac20                UsageFault_Handler
 .text.SVC_Handler
                0x0800ac24        0x4 util\stm32f10x_it.o
                0x0800ac24                SVC_Handler
 .text.DebugMon_Handler
                0x0800ac28        0x4 util\stm32f10x_it.o
                0x0800ac28                DebugMon_Handler
 .text.PendSV_Handler
                0x0800ac2c        0x4 util\stm32f10x_it.o
                0x0800ac2c                PendSV_Handler
 .text.USB_LP_CAN1_RX0_IRQHandler
                0x0800ac30        0x4 util\stm32f10x_it.o
                0x0800ac30                USB_LP_CAN1_RX0_IRQHandler
 .text.__libc_init_array
                0x0800ac34       0x48 c:/program files (x86)/atollic/truestudio for stm32 9.1.0/armtools/bin/../lib/gcc/arm-atollic-eabi/6.3.1/../../../../arm-atollic-eabi/lib/armv7-m\libc.a(lib_a-init.o)
                0x0800ac34                __libc_init_array
 .text.memcmp   0x0800ac7c       0x1e c:/program files (x86)/atollic/truestudio for stm32 9.1.0/armtools/bin/../lib/gcc/arm-atollic-eabi/6.3.1/../../../../arm-atollic-eabi/lib/armv7-m\libc.a(lib_a-memcmp.o)
                0x0800ac7c                memcmp
 .text.memset   0x0800ac9a       0x10 c:/program files (x86)/atollic/truestudio for stm32 9.1.0/armtools/bin/../lib/gcc/arm-atollic-eabi/6.3.1/../../../../arm-atollic-eabi/lib/armv7-m\libc.a(lib_a-memset.o)
                0x0800ac9a                memset
 *fill*         0x0800acaa        0x2 
 .text.ceilf    0x0800acac       0x80 c:/program files (x86)/atollic/truestudio for stm32 9.1.0/armtools/bin/../lib/gcc/arm-atollic-eabi/6.3.1/../../../../arm-atollic-eabi/lib/armv7-m\libm.a(lib_a-sf_ceil.o)
                0x0800acac                ceilf
 .text.cosf     0x0800ad2c       0x68 c:/program files (x86)/atollic/truestudio for stm32 9.1.0/armtools/bin/../lib/gcc/arm-atollic-eabi/6.3.1/../../../../arm-atollic-eabi/lib/armv7-m\libm.a(lib_a-sf_cos.o)
                0x0800ad2c                cosf
 .text.floorf   0x0800ad94       0x80 c:/program files (x86)/atollic/truestudio for stm32 9.1.0/armtools/bin/../lib/gcc/arm-atollic-eabi/6.3.1/../../../../arm-atollic-eabi/lib/armv7-m\libm.a(lib_a-sf_floor.o)
                0x0800ad94                floorf
 .text.lroundf  0x0800ae14       0x58 c:/program files (x86)/atollic/truestudio for stm32 9.1.0/armtools/bin/../lib/gcc/arm-atollic-eabi/6.3.1/../../../../arm-atollic-eabi/lib/armv7-m\libm.a(lib_a-sf_lround.o)
                0x0800ae14                lroundf
 .text.sinf     0x0800ae6c       0x6c c:/program files (x86)/atollic/truestudio for stm32 9.1.0/armtools/bin/../lib/gcc/arm-atollic-eabi/6.3.1/../../../../arm-atollic-eabi/lib/armv7-m\libm.a(lib_a-sf_sin.o)
                0x0800ae6c                sinf
 .text.atan2f   0x0800aed8        0x4 c:/program files (x86)/atollic/truestudio for stm32 9.1.0/armtools/bin/../lib/gcc/arm-atollic-eabi/6.3.1/../../../../arm-atollic-eabi/lib/armv7-m\libm.a(lib_a-wf_atan2.o)
                0x0800aed8                atan2f
 .text.sqrtf    0x0800aedc       0x94 c:/program files (x86)/atollic/truestudio for stm32 9.1.0/armtools/bin/../lib/gcc/arm-atollic-eabi/6.3.1/../../../../arm-atollic-eabi/lib/armv7-m\libm.a(lib_a-wf_sqrt.o)
                0x0800aedc                sqrtf
 .text.__ieee754_atan2f
                0x0800af70      0x120 c:/program files (x86)/atollic/truestudio for stm32 9.1.0/armtools/bin/../lib/gcc/arm-atollic-eabi/6.3.1/../../../../arm-atollic-eabi/lib/armv7-m\libm.a(lib_a-ef_atan2.o)
                0x0800af70                __ieee754_atan2f
 .text.__ieee754_rem_pio2f
                0x0800b090      0x2b0 c:/program files (x86)/atollic/truestudio for stm32 9.1.0/armtools/bin/../lib/gcc/arm-atollic-eabi/6.3.1/../../../../arm-atollic-eabi/lib/armv7-m\libm.a(lib_a-ef_rem_pio2.o)
                0x0800b090                __ieee754_rem_pio2f
 .text.__ieee754_sqrtf
                0x0800b340       0xa4 c:/program files (x86)/atollic/truestudio for stm32 9.1.0/armtools/bin/../lib/gcc/arm-atollic-eabi/6.3.1/../../../../arm-atollic-eabi/lib/armv7-m\libm.a(lib_a-ef_sqrt.o)
                0x0800b340                __ieee754_sqrtf
 .text.__kernel_cosf
                0x0800b3e4      0x128 c:/program files (x86)/atollic/truestudio for stm32 9.1.0/armtools/bin/../lib/gcc/arm-atollic-eabi/6.3.1/../../../../arm-atollic-eabi/lib/armv7-m\libm.a(lib_a-kf_cos.o)
                0x0800b3e4                __kernel_cosf
 .text.__kernel_rem_pio2f
                0x0800b50c      0x51c c:/program files (x86)/atollic/truestudio for stm32 9.1.0/armtools/bin/../lib/gcc/arm-atollic-eabi/6.3.1/../../../../arm-atollic-eabi/lib/armv7-m\libm.a(lib_a-kf_rem_pio2.o)
                0x0800b50c                __kernel_rem_pio2f
 .text.__kernel_sinf
                0x0800ba28       0xec c:/program files (x86)/atollic/truestudio for stm32 9.1.0/armtools/bin/../lib/gcc/arm-atollic-eabi/6.3.1/../../../../arm-atollic-eabi/lib/armv7-m\libm.a(lib_a-kf_sin.o)
                0x0800ba28                __kernel_sinf
 .text.matherr  0x0800bb14        0x4 c:/program files (x86)/atollic/truestudio for stm32 9.1.0/armtools/bin/../lib/gcc/arm-atollic-eabi/6.3.1/../../../../arm-atollic-eabi/lib/armv7-m\libm.a(lib_a-s_matherr.o)
                0x0800bb14                matherr
 .text.atanf    0x0800bb18      0x220 c:/program files (x86)/atollic/truestudio for stm32 9.1.0/armtools/bin/../lib/gcc/arm-atollic-eabi/6.3.1/../../../../arm-atollic-eabi/lib/armv7-m\libm.a(lib_a-sf_atan.o)
                0x0800bb18                atanf
 .text.fabsf    0x0800bd38        0x6 c:/program files (x86)/atollic/truestudio for stm32 9.1.0/armtools/bin/../lib/gcc/arm-atollic-eabi/6.3.1/../../../../arm-atollic-eabi/lib/armv7-m\libm.a(lib_a-sf_fabs.o)
                0x0800bd38                fabsf
 *fill*         0x0800bd3e        0x2 
 .text.scalbnf  0x0800bd40       0x98 c:/program files (x86)/atollic/truestudio for stm32 9.1.0/armtools/bin/../lib/gcc/arm-atollic-eabi/6.3.1/../../../../arm-atollic-eabi/lib/armv7-m\libm.a(lib_a-sf_scalbn.o)
                0x0800bd40                scalbnf
 .text.copysignf
                0x0800bdd8        0xc c:/program files (x86)/atollic/truestudio for stm32 9.1.0/armtools/bin/../lib/gcc/arm-atollic-eabi/6.3.1/../../../../arm-atollic-eabi/lib/armv7-m\libm.a(lib_a-sf_copysign.o)
                0x0800bdd8                copysignf
 .text.__errno  0x0800bde4        0xc c:/program files (x86)/atollic/truestudio for stm32 9.1.0/armtools/bin/../lib/gcc/arm-atollic-eabi/6.3.1/../../../../arm-atollic-eabi/lib/armv7-m\libc.a(lib_a-errno.o)
                0x0800bde4                __errno
 *(.glue_7)
 .glue_7        0x0800bdf0        0x0 linker stubs
 *(.glue_7t)
 .glue_7t       0x0800bdf0        0x0 linker stubs
 *(.eh_frame)
 .eh_frame      0x0800bdf0        0x0 c:/program files (x86)/atollic/truestudio for stm32 9.1.0/armtools/bin/../lib/gcc/arm-atollic-eabi/6.3.1/armv7-m/crtbegin.o
 *(.init)
 .init          0x0800bdf0        0x4 c:/program files (x86)/atollic/truestudio for stm32 9.1.0/armtools/bin/../lib/gcc/arm-atollic-eabi/6.3.1/armv7-m/crti.o
                0x0800bdf0                _init
 .init          0x0800bdf4        0x8 c:/program files (x86)/atollic/truestudio for stm32 9.1.0/armtools/bin/../lib/gcc/arm-atollic-eabi/6.3.1/armv7-m/crtn.o
 *(.fini)
 .fini          0x0800bdfc        0x4 c:/program files (x86)/atollic/truestudio for stm32 9.1.0/armtools/bin/../lib/gcc/arm-atollic-eabi/6.3.1/armv7-m/crti.o
                0x0800bdfc                _fini
 .fini          0x0800be00        0x8 c:/program files (x86)/atollic/truestudio for stm32 9.1.0/armtools/bin/../lib/gcc/arm-atollic-eabi/6.3.1/armv7-m/crtn.o
                0x0800be08                . = ALIGN (0x4)
                0x0800be08                _etext = .

.vfp11_veneer   0x0800be08        0x0
 .vfp11_veneer  0x0800be08        0x0 linker stubs

.v4_bx          0x0800be08        0x0
 .v4_bx         0x0800be08        0x0 linker stubs

.iplt           0x0800be08        0x0
 .iplt          0x0800be08        0x0 c:/program files (x86)/atollic/truestudio for stm32 9.1.0/armtools/bin/../lib/gcc/arm-atollic-eabi/6.3.1/armv7-m/crtbegin.o

.rodata         0x0800be08      0x6b4
                0x0800be08                . = ALIGN (0x4)
 *(.rodata)
 *(.rodata*)
 .rodata.report_alarm_message.str1.4
                0x0800be08        0x7 src\report.o
 *fill*         0x0800be0f        0x1 
 .rodata.report_build_info.str1.4
                0x0800be10       0x1a src\report.o
 *fill*         0x0800be2a        0x2 
 .rodata.report_feedback_message.str1.4
                0x0800be2c       0xad src\report.o
 *fill*         0x0800bed9        0x3 
 .rodata.report_gcode_modes.str1.4
                0x0800bedc       0x1f src\report.o
 *fill*         0x0800befb        0x1 
 .rodata.report_grbl_help.str1.4
                0x0800befc       0x4a src\report.o
 *fill*         0x0800bf46        0x2 
 .rodata.report_init_message.str1.4
                0x0800bf48       0x1d src\report.o
 *fill*         0x0800bf65        0x3 
 .rodata.report_ngc_parameters.str1.4
                0x0800bf68       0x1a src\report.o
 *fill*         0x0800bf82        0x2 
 .rodata.report_probe_parameters.str1.4
                0x0800bf84        0x6 src\report.o
 *fill*         0x0800bf8a        0x2 
 .rodata.report_realtime_status.str1.4
                0x0800bf8c       0x7b src\report.o
 *fill*         0x0800c007        0x1 
 .rodata.report_startup_line.str1.4
                0x0800c008        0x3 src\report.o
 *fill*         0x0800c00b        0x1 
 .rodata.report_status_message.str1.4
                0x0800c00c       0x14 src\report.o
                                 0x13 (size before relaxing)
 .rodata.direction_pin_mask
                0x0800c020        0x8 src\stepper.o
                0x0800c020                direction_pin_mask
 .rodata.limit_pin_mask
                0x0800c028        0x8 src\stepper.o
                0x0800c028                limit_pin_mask
 .rodata.step_pin_mask
                0x0800c030        0x8 src\stepper.o
                0x0800c030                step_pin_mask
 .rodata.Virtual_Com_Port_ConfigDescriptor
                0x0800c038       0x43 usb\usb_desc.o
                0x0800c038                Virtual_Com_Port_ConfigDescriptor
 *fill*         0x0800c07b        0x1 
 .rodata.Virtual_Com_Port_DeviceDescriptor
                0x0800c07c       0x12 usb\usb_desc.o
                0x0800c07c                Virtual_Com_Port_DeviceDescriptor
 *fill*         0x0800c08e        0x2 
 .rodata.Virtual_Com_Port_StringLangID
                0x0800c090        0x4 usb\usb_desc.o
                0x0800c090                Virtual_Com_Port_StringLangID
 .rodata.Virtual_Com_Port_StringProduct
                0x0800c094       0x1c usb\usb_desc.o
                0x0800c094                Virtual_Com_Port_StringProduct
 .rodata.Virtual_Com_Port_StringVendor
                0x0800c0b0       0x16 usb\usb_desc.o
                0x0800c0b0                Virtual_Com_Port_StringVendor
 .rodata.sqrtf.str1.1
                0x0800c0c6        0x6 c:/program files (x86)/atollic/truestudio for stm32 9.1.0/armtools/bin/../lib/gcc/arm-atollic-eabi/6.3.1/../../../../arm-atollic-eabi/lib/armv7-m\libm.a(lib_a-wf_sqrt.o)
 .rodata.npio2_hw
                0x0800c0cc       0x80 c:/program files (x86)/atollic/truestudio for stm32 9.1.0/armtools/bin/../lib/gcc/arm-atollic-eabi/6.3.1/../../../../arm-atollic-eabi/lib/armv7-m\libm.a(lib_a-ef_rem_pio2.o)
 .rodata.two_over_pi
                0x0800c14c      0x318 c:/program files (x86)/atollic/truestudio for stm32 9.1.0/armtools/bin/../lib/gcc/arm-atollic-eabi/6.3.1/../../../../arm-atollic-eabi/lib/armv7-m\libm.a(lib_a-ef_rem_pio2.o)
 .rodata.PIo2   0x0800c464       0x2c c:/program files (x86)/atollic/truestudio for stm32 9.1.0/armtools/bin/../lib/gcc/arm-atollic-eabi/6.3.1/../../../../arm-atollic-eabi/lib/armv7-m\libm.a(lib_a-kf_rem_pio2.o)
 .rodata.init_jk
                0x0800c490        0xc c:/program files (x86)/atollic/truestudio for stm32 9.1.0/armtools/bin/../lib/gcc/arm-atollic-eabi/6.3.1/../../../../arm-atollic-eabi/lib/armv7-m\libm.a(lib_a-kf_rem_pio2.o)
 .rodata.atanhi
                0x0800c49c       0x10 c:/program files (x86)/atollic/truestudio for stm32 9.1.0/armtools/bin/../lib/gcc/arm-atollic-eabi/6.3.1/../../../../arm-atollic-eabi/lib/armv7-m\libm.a(lib_a-sf_atan.o)
 .rodata.atanlo
                0x0800c4ac       0x10 c:/program files (x86)/atollic/truestudio for stm32 9.1.0/armtools/bin/../lib/gcc/arm-atollic-eabi/6.3.1/../../../../arm-atollic-eabi/lib/armv7-m\libm.a(lib_a-sf_atan.o)
                0x0800c4bc                . = ALIGN (0x4)

.rel.dyn        0x0800c4bc        0x0
 .rel.iplt      0x0800c4bc        0x0 c:/program files (x86)/atollic/truestudio for stm32 9.1.0/armtools/bin/../lib/gcc/arm-atollic-eabi/6.3.1/armv7-m/crtbegin.o

.ARM.extab
 *(.ARM.extab* .gnu.linkonce.armextab.*)

.ARM            0x0800c4bc        0x0
                0x0800c4bc                __exidx_start = .
 *(.ARM.exidx*)
                0x0800c4bc                __exidx_end = .

.preinit_array  0x0800c4bc        0x0
                0x0800c4bc                PROVIDE (__preinit_array_start, .)
 *(.preinit_array*)
                0x0800c4bc                PROVIDE (__preinit_array_end, .)

.init_array     0x0800c4bc        0x4
                0x0800c4bc                PROVIDE (__init_array_start, .)
 *(SORT(.init_array.*))
 *(.init_array*)
 .init_array    0x0800c4bc        0x4 c:/program files (x86)/atollic/truestudio for stm32 9.1.0/armtools/bin/../lib/gcc/arm-atollic-eabi/6.3.1/armv7-m/crtbegin.o
                0x0800c4c0                PROVIDE (__init_array_end, .)

.fini_array     0x0800c4c0        0x4
                [!provide]                PROVIDE (__fini_array_start, .)
 *(SORT(.fini_array.*))
 *(.fini_array*)
 .fini_array    0x0800c4c0        0x4 c:/program files (x86)/atollic/truestudio for stm32 9.1.0/armtools/bin/../lib/gcc/arm-atollic-eabi/6.3.1/armv7-m/crtbegin.o
                [!provide]                PROVIDE (__fini_array_end, .)
                0x0800c4c4                _sidata = LOADADDR (.data)

.data           0x20000000      0x1e4 load address 0x0800c4c4
                0x20000000                . = ALIGN (0x4)
                0x20000000                _sdata = .
 *(.data)
 *(.data*)
 .data.nOnFlag.8688
                0x20000000        0x1 src\main.o
 *fill*         0x20000001        0x3 
 .data.SystemCoreClock
                0x20000004        0x4 src\system_stm32f10x.o
                0x20000004                SystemCoreClock
 .data.Virtual_Com_Port_StringSerial
                0x20000008       0x1a usb\usb_desc.o
                0x20000008                Virtual_Com_Port_StringSerial
 *fill*         0x20000022        0x2 
 .data.pEpInt_IN
                0x20000024       0x1c usb\usb_istr.o
                0x20000024                pEpInt_IN
 .data.pEpInt_OUT
                0x20000040       0x1c usb\usb_istr.o
                0x20000040                pEpInt_OUT
 .data.Config_Descriptor
                0x2000005c        0x8 usb\usb_prop.o
                0x2000005c                Config_Descriptor
 .data.Device_Descriptor
                0x20000064        0x8 usb\usb_prop.o
                0x20000064                Device_Descriptor
 .data.Device_Property
                0x2000006c       0x30 usb\usb_prop.o
                0x2000006c                Device_Property
 .data.Device_Table
                0x2000009c        0x2 usb\usb_prop.o
                0x2000009c                Device_Table
 *fill*         0x2000009e        0x2 
 .data.String_Descriptor
                0x200000a0       0x20 usb\usb_prop.o
                0x200000a0                String_Descriptor
 .data.User_Standard_Requests
                0x200000c0       0x24 usb\usb_prop.o
                0x200000c0                User_Standard_Requests
 .data.linecoding
                0x200000e4        0x8 usb\usb_prop.o
                0x200000e4                linecoding
 .data.__fdlib_version
                0x200000ec        0x1 c:/program files (x86)/atollic/truestudio for stm32 9.1.0/armtools/bin/../lib/gcc/arm-atollic-eabi/6.3.1/../../../../arm-atollic-eabi/lib/armv7-m\libm.a(lib_a-s_lib_ver.o)
                0x200000ec                __fdlib_version
 *fill*         0x200000ed        0x3 
 .data._impure_ptr
                0x200000f0        0x4 c:/program files (x86)/atollic/truestudio for stm32 9.1.0/armtools/bin/../lib/gcc/arm-atollic-eabi/6.3.1/../../../../arm-atollic-eabi/lib/armv7-m\libc.a(lib_a-impure.o)
                0x200000f0                _impure_ptr
 .data.impure_data
                0x200000f4       0xf0 c:/program files (x86)/atollic/truestudio for stm32 9.1.0/armtools/bin/../lib/gcc/arm-atollic-eabi/6.3.1/../../../../arm-atollic-eabi/lib/armv7-m\libc.a(lib_a-impure.o)
                0x200001e4                . = ALIGN (0x4)
                0x200001e4                _edata = .

.igot.plt       0x200001e4        0x0 load address 0x0800c6a8
 .igot.plt      0x200001e4        0x0 c:/program files (x86)/atollic/truestudio for stm32 9.1.0/armtools/bin/../lib/gcc/arm-atollic-eabi/6.3.1/armv7-m/crtbegin.o
                0x200001e4                . = ALIGN (0x4)

.bss            0x200001e4     0x1174 load address 0x0800c6a8
                0x200001e4                _sbss = .
                0x200001e4                __bss_start__ = _sbss
 *(.bss)
 .bss           0x200001e4       0x1c c:/program files (x86)/atollic/truestudio for stm32 9.1.0/armtools/bin/../lib/gcc/arm-atollic-eabi/6.3.1/armv7-m/crtbegin.o
 *(.bss*)
 .bss.block_buffer
                0x20000200      0x7e0 src\planner.o
 .bss.block_buffer_head
                0x200009e0        0x1 src\planner.o
 .bss.block_buffer_planned
                0x200009e1        0x1 src\planner.o
 .bss.block_buffer_tail
                0x200009e2        0x1 src\planner.o
 .bss.next_buffer_head
                0x200009e3        0x1 src\planner.o
 .bss.pl        0x200009e4       0x24 src\planner.o
 .bss.line      0x20000a08       0x50 src\protocol.o
 .bss.serial_rx_buffer_head
                0x20000a58        0x1 src\serial.o
                0x20000a58                serial_rx_buffer_head
 .bss.serial_rx_buffer_tail
                0x20000a59        0x1 src\serial.o
                0x20000a59                serial_rx_buffer_tail
 .bss.serial_tx_buffer_head
                0x20000a5a        0x1 src\serial.o
                0x20000a5a                serial_tx_buffer_head
 .bss.serial_tx_buffer_tail
                0x20000a5b        0x1 src\serial.o
                0x20000a5b                serial_tx_buffer_tail
 .bss.pwm_gradient
                0x20000a5c        0x4 src\spindle_control.o
 .bss.busy      0x20000a60        0x1 src\stepper.o
 *fill*         0x20000a61        0x1 
 .bss.dir_port_invert_mask
                0x20000a62        0x2 src\stepper.o
 .bss.pl_block  0x20000a64        0x4 src\stepper.o
 .bss.prep      0x20000a68       0x38 src\stepper.o
 .bss.segment_buffer
                0x20000aa0       0x50 src\stepper.o
 .bss.segment_buffer_head
                0x20000af0        0x1 src\stepper.o
 .bss.segment_buffer_tail
                0x20000af1        0x1 src\stepper.o
 .bss.segment_next_head
                0x20000af2        0x1 src\stepper.o
 *fill*         0x20000af3        0x1 
 .bss.st        0x20000af4       0x34 src\stepper.o
 .bss.st_block_buffer
                0x20000b28       0xd8 src\stepper.o
 .bss.st_prep_block
                0x20000c00        0x4 src\stepper.o
 .bss.step_port_invert_mask
                0x20000c04        0x2 src\stepper.o
 *fill*         0x20000c06        0x2 
 .bss.Data_Mul_MaxPacketSize
                0x20000c08        0x4 stm_usb_fs_lib\src\usb_core.o
                0x20000c08                Data_Mul_MaxPacketSize
 .bss.txUsbLock
                0x20000c0c        0x1 usb\usb_endp.o
                0x20000c0c                txUsbLock
 .bss.bIntPackSOF
                0x20000c0d        0x1 usb\usb_istr.o
                0x20000c0d                bIntPackSOF
 .bss.Request   0x20000c0e        0x1 usb\usb_prop.o
                0x20000c0e                Request
 *fill*         0x20000c0f        0x1 
 .bss.bDeviceState
                0x20000c10        0x4 usb\usb_pwr.o
                0x20000c10                bDeviceState
 *(COMMON)
 COMMON         0x20000c14      0x400 src\eeprom.o
                0x20000c14                EE_Buffer
 COMMON         0x20001014       0x98 src\gcode.o
                0x20001014                gc_state
                0x20001064                gc_block
 COMMON         0x200010ac       0x3d src\main.o
                0x200010ac                sys_rt_exec_motion_override
                0x200010b0                sys
                0x200010c4                sys_rt_exec_accessory_override
                0x200010c5                sys_rt_exec_state
                0x200010c6                sys_probe_state
                0x200010c8                sys_probe_position
                0x200010d8                sys_position
                0x200010e8                sys_rt_exec_alarm
 *fill*         0x200010e9        0x1 
 COMMON         0x200010ea        0x2 src\probe.o
                0x200010ea                probe_invert_mask
 COMMON         0x200010ec      0x17e src\serial.o
                0x200010ec                serial_tx_buffer
                0x2000116c                serial_rx_buffer
 *fill*         0x2000126a        0x2 
 COMMON         0x2000126c       0x6c src\settings.o
                0x2000126c                settings
 COMMON         0x200012d8        0x2 stm_usb_fs_lib\src\usb_core.o
                0x200012d8                StatusInfo
 *fill*         0x200012da        0x2 
 COMMON         0x200012dc       0x32 stm_usb_fs_lib\src\usb_init.o
                0x200012dc                SaveState
                0x200012e0                pProperty
                0x200012e4                EPindex
                0x200012e8                Device_Info
                0x20001304                pUser_Standard_Requests
                0x20001308                pInformation
                0x2000130c                wInterrupt_Mask
 COMMON         0x2000130e        0x4 stm_usb_fs_lib\src\usb_int.o
                0x2000130e                SaveRState
                0x20001310                SaveTState
 *fill*         0x20001312        0x2 
 COMMON         0x20001314       0x40 usb\usb_endp.o
                0x20001314                USB_Rx_Buffer
 COMMON         0x20001354        0x2 usb\usb_istr.o
                0x20001354                wIstr
                0x20001358                . = ALIGN (0x4)
 *fill*         0x20001356        0x2 
                0x20001358                _ebss = .
                0x20001358                __bss_end__ = _ebss

._user_heap_stack
                0x20001358      0x280 load address 0x0800c6a8
                0x20001358                . = ALIGN (0x4)
                [!provide]                PROVIDE (end, .)
                [!provide]                PROVIDE (_end, .)
                0x200013d8                . = (. + _Min_Heap_Size)
 *fill*         0x20001358       0x80 
                0x200015d8                . = (. + _Min_Stack_Size)
 *fill*         0x200013d8      0x200 
                0x200015d8                . = ALIGN (0x4)

.memory_b1_text
 *(.mb1text)
 *(.mb1text*)
 *(.mb1rodata)
 *(.mb1rodata*)

/DISCARD/
 libc.a(*)
 libm.a(*)
 libgcc.a(*)

.ARM.attributes
                0x00000000       0x29
 *(.ARM.attributes)
 .ARM.attributes
                0x00000000       0x1d c:/program files (x86)/atollic/truestudio for stm32 9.1.0/armtools/bin/../lib/gcc/arm-atollic-eabi/6.3.1/armv7-m/crti.o
 .ARM.attributes
                0x0000001d       0x2d c:/program files (x86)/atollic/truestudio for stm32 9.1.0/armtools/bin/../lib/gcc/arm-atollic-eabi/6.3.1/armv7-m/crtbegin.o
 .ARM.attributes
                0x0000004a       0x2f Libraries\STM32F10x_StdPeriph_Driver\src\misc.o
 .ARM.attributes
                0x00000079       0x2f Libraries\STM32F10x_StdPeriph_Driver\src\stm32f10x_exti.o
 .ARM.attributes
                0x000000a8       0x2f Libraries\STM32F10x_StdPeriph_Driver\src\stm32f10x_flash.o
 .ARM.attributes
                0x000000d7       0x2f Libraries\STM32F10x_StdPeriph_Driver\src\stm32f10x_gpio.o
 .ARM.attributes
                0x00000106       0x2f Libraries\STM32F10x_StdPeriph_Driver\src\stm32f10x_rcc.o
 .ARM.attributes
                0x00000135       0x2f Libraries\STM32F10x_StdPeriph_Driver\src\stm32f10x_tim.o
 .ARM.attributes
                0x00000164       0x2f src\coolant_control.o
 .ARM.attributes
                0x00000193       0x2f src\eeprom.o
 .ARM.attributes
                0x000001c2       0x2f src\gcode.o
 .ARM.attributes
                0x000001f1       0x2f src\jog.o
 .ARM.attributes
                0x00000220       0x2f src\limits.o
 .ARM.attributes
                0x0000024f       0x2f src\main.o
 .ARM.attributes
                0x0000027e       0x2f src\motion_control.o
 .ARM.attributes
                0x000002ad       0x2f src\nuts_bolts.o
 .ARM.attributes
                0x000002dc       0x2f src\planner.o
 .ARM.attributes
                0x0000030b       0x2f src\print.o
 .ARM.attributes
                0x0000033a       0x2f src\probe.o
 .ARM.attributes
                0x00000369       0x2f src\protocol.o
 .ARM.attributes
                0x00000398       0x2f src\report.o
 .ARM.attributes
                0x000003c7       0x2f src\serial.o
 .ARM.attributes
                0x000003f6       0x2f src\settings.o
 .ARM.attributes
                0x00000425       0x2f src\spindle_control.o
 .ARM.attributes
                0x00000454       0x21 src\startup_stm32f10x_md.o
 .ARM.attributes
                0x00000475       0x2f src\stepper.o
 .ARM.attributes
                0x000004a4       0x2f src\system.o
 .ARM.attributes
                0x000004d3       0x2f src\system_stm32f10x.o
 .ARM.attributes
                0x00000502       0x2f stm_usb_fs_lib\src\usb_core.o
 .ARM.attributes
                0x00000531       0x2f stm_usb_fs_lib\src\usb_init.o
 .ARM.attributes
                0x00000560       0x2f stm_usb_fs_lib\src\usb_int.o
 .ARM.attributes
                0x0000058f       0x2f stm_usb_fs_lib\src\usb_mem.o
 .ARM.attributes
                0x000005be       0x2f stm_usb_fs_lib\src\usb_regs.o
 .ARM.attributes
                0x000005ed       0x2f stm_usb_fs_lib\src\usb_sil.o
 .ARM.attributes
                0x0000061c       0x2f usb\hw_config.o
 .ARM.attributes
                0x0000064b       0x2f usb\usb_desc.o
 .ARM.attributes
                0x0000067a       0x2f usb\usb_endp.o
 .ARM.attributes
                0x000006a9       0x2f usb\usb_istr.o
 .ARM.attributes
                0x000006d8       0x2f usb\usb_prop.o
 .ARM.attributes
                0x00000707       0x2f usb\usb_pwr.o
 .ARM.attributes
                0x00000736       0x2f util\stm32f10x_it.o
 .ARM.attributes
                0x00000765       0x2d c:/program files (x86)/atollic/truestudio for stm32 9.1.0/armtools/bin/../lib/gcc/arm-atollic-eabi/6.3.1/../../../../arm-atollic-eabi/lib/armv7-m\libc.a(lib_a-init.o)
 .ARM.attributes
                0x00000792       0x2d c:/program files (x86)/atollic/truestudio for stm32 9.1.0/armtools/bin/../lib/gcc/arm-atollic-eabi/6.3.1/../../../../arm-atollic-eabi/lib/armv7-m\libc.a(lib_a-memcmp.o)
 .ARM.attributes
                0x000007bf       0x2d c:/program files (x86)/atollic/truestudio for stm32 9.1.0/armtools/bin/../lib/gcc/arm-atollic-eabi/6.3.1/../../../../arm-atollic-eabi/lib/armv7-m\libc.a(lib_a-memset.o)
 .ARM.attributes
                0x000007ec       0x2d c:/program files (x86)/atollic/truestudio for stm32 9.1.0/armtools/bin/../lib/gcc/arm-atollic-eabi/6.3.1/../../../../arm-atollic-eabi/lib/armv7-m\libm.a(lib_a-sf_ceil.o)
 .ARM.attributes
                0x00000819       0x2d c:/program files (x86)/atollic/truestudio for stm32 9.1.0/armtools/bin/../lib/gcc/arm-atollic-eabi/6.3.1/../../../../arm-atollic-eabi/lib/armv7-m\libm.a(lib_a-sf_cos.o)
 .ARM.attributes
                0x00000846       0x2d c:/program files (x86)/atollic/truestudio for stm32 9.1.0/armtools/bin/../lib/gcc/arm-atollic-eabi/6.3.1/../../../../arm-atollic-eabi/lib/armv7-m\libm.a(lib_a-sf_floor.o)
 .ARM.attributes
                0x00000873       0x2d c:/program files (x86)/atollic/truestudio for stm32 9.1.0/armtools/bin/../lib/gcc/arm-atollic-eabi/6.3.1/../../../../arm-atollic-eabi/lib/armv7-m\libm.a(lib_a-sf_lround.o)
 .ARM.attributes
                0x000008a0       0x2d c:/program files (x86)/atollic/truestudio for stm32 9.1.0/armtools/bin/../lib/gcc/arm-atollic-eabi/6.3.1/../../../../arm-atollic-eabi/lib/armv7-m\libm.a(lib_a-sf_sin.o)
 .ARM.attributes
                0x000008cd       0x2d c:/program files (x86)/atollic/truestudio for stm32 9.1.0/armtools/bin/../lib/gcc/arm-atollic-eabi/6.3.1/../../../../arm-atollic-eabi/lib/armv7-m\libm.a(lib_a-wf_atan2.o)
 .ARM.attributes
                0x000008fa       0x2d c:/program files (x86)/atollic/truestudio for stm32 9.1.0/armtools/bin/../lib/gcc/arm-atollic-eabi/6.3.1/../../../../arm-atollic-eabi/lib/armv7-m\libm.a(lib_a-wf_sqrt.o)
 .ARM.attributes
                0x00000927       0x2d c:/program files (x86)/atollic/truestudio for stm32 9.1.0/armtools/bin/../lib/gcc/arm-atollic-eabi/6.3.1/../../../../arm-atollic-eabi/lib/armv7-m\libm.a(lib_a-ef_atan2.o)
 .ARM.attributes
                0x00000954       0x2d c:/program files (x86)/atollic/truestudio for stm32 9.1.0/armtools/bin/../lib/gcc/arm-atollic-eabi/6.3.1/../../../../arm-atollic-eabi/lib/armv7-m\libm.a(lib_a-ef_rem_pio2.o)
 .ARM.attributes
                0x00000981       0x2d c:/program files (x86)/atollic/truestudio for stm32 9.1.0/armtools/bin/../lib/gcc/arm-atollic-eabi/6.3.1/../../../../arm-atollic-eabi/lib/armv7-m\libm.a(lib_a-ef_sqrt.o)
 .ARM.attributes
                0x000009ae       0x2d c:/program files (x86)/atollic/truestudio for stm32 9.1.0/armtools/bin/../lib/gcc/arm-atollic-eabi/6.3.1/../../../../arm-atollic-eabi/lib/armv7-m\libm.a(lib_a-kf_cos.o)
 .ARM.attributes
                0x000009db       0x2d c:/program files (x86)/atollic/truestudio for stm32 9.1.0/armtools/bin/../lib/gcc/arm-atollic-eabi/6.3.1/../../../../arm-atollic-eabi/lib/armv7-m\libm.a(lib_a-kf_rem_pio2.o)
 .ARM.attributes
                0x00000a08       0x2d c:/program files (x86)/atollic/truestudio for stm32 9.1.0/armtools/bin/../lib/gcc/arm-atollic-eabi/6.3.1/../../../../arm-atollic-eabi/lib/armv7-m\libm.a(lib_a-kf_sin.o)
 .ARM.attributes
                0x00000a35       0x2d c:/program files (x86)/atollic/truestudio for stm32 9.1.0/armtools/bin/../lib/gcc/arm-atollic-eabi/6.3.1/../../../../arm-atollic-eabi/lib/armv7-m\libm.a(lib_a-s_lib_ver.o)
 .ARM.attributes
                0x00000a62       0x2d c:/program files (x86)/atollic/truestudio for stm32 9.1.0/armtools/bin/../lib/gcc/arm-atollic-eabi/6.3.1/../../../../arm-atollic-eabi/lib/armv7-m\libm.a(lib_a-s_matherr.o)
 .ARM.attributes
                0x00000a8f       0x2d c:/program files (x86)/atollic/truestudio for stm32 9.1.0/armtools/bin/../lib/gcc/arm-atollic-eabi/6.3.1/../../../../arm-atollic-eabi/lib/armv7-m\libm.a(lib_a-sf_atan.o)
 .ARM.attributes
                0x00000abc       0x2d c:/program files (x86)/atollic/truestudio for stm32 9.1.0/armtools/bin/../lib/gcc/arm-atollic-eabi/6.3.1/../../../../arm-atollic-eabi/lib/armv7-m\libm.a(lib_a-sf_fabs.o)
 .ARM.attributes
                0x00000ae9       0x2d c:/program files (x86)/atollic/truestudio for stm32 9.1.0/armtools/bin/../lib/gcc/arm-atollic-eabi/6.3.1/../../../../arm-atollic-eabi/lib/armv7-m\libm.a(lib_a-sf_scalbn.o)
 .ARM.attributes
                0x00000b16       0x2d c:/program files (x86)/atollic/truestudio for stm32 9.1.0/armtools/bin/../lib/gcc/arm-atollic-eabi/6.3.1/../../../../arm-atollic-eabi/lib/armv7-m\libm.a(lib_a-sf_copysign.o)
 .ARM.attributes
                0x00000b43       0x2d c:/program files (x86)/atollic/truestudio for stm32 9.1.0/armtools/bin/../lib/gcc/arm-atollic-eabi/6.3.1/../../../../arm-atollic-eabi/lib/armv7-m\libc.a(lib_a-errno.o)
 .ARM.attributes
                0x00000b70       0x2d c:/program files (x86)/atollic/truestudio for stm32 9.1.0/armtools/bin/../lib/gcc/arm-atollic-eabi/6.3.1/../../../../arm-atollic-eabi/lib/armv7-m\libc.a(lib_a-impure.o)
 .ARM.attributes
                0x00000b9d       0x1d c:/program files (x86)/atollic/truestudio for stm32 9.1.0/armtools/bin/../lib/gcc/arm-atollic-eabi/6.3.1/armv7-m\libgcc.a(_arm_addsubdf3.o)
 .ARM.attributes
                0x00000bba       0x1d c:/program files (x86)/atollic/truestudio for stm32 9.1.0/armtools/bin/../lib/gcc/arm-atollic-eabi/6.3.1/armv7-m\libgcc.a(_arm_muldivdf3.o)
 .ARM.attributes
                0x00000bd7       0x1d c:/program files (x86)/atollic/truestudio for stm32 9.1.0/armtools/bin/../lib/gcc/arm-atollic-eabi/6.3.1/armv7-m\libgcc.a(_arm_cmpdf2.o)
 .ARM.attributes
                0x00000bf4       0x1d c:/program files (x86)/atollic/truestudio for stm32 9.1.0/armtools/bin/../lib/gcc/arm-atollic-eabi/6.3.1/armv7-m\libgcc.a(_arm_truncdfsf2.o)
 .ARM.attributes
                0x00000c11       0x1d c:/program files (x86)/atollic/truestudio for stm32 9.1.0/armtools/bin/../lib/gcc/arm-atollic-eabi/6.3.1/armv7-m\libgcc.a(_arm_addsubsf3.o)
 .ARM.attributes
                0x00000c2e       0x1d c:/program files (x86)/atollic/truestudio for stm32 9.1.0/armtools/bin/../lib/gcc/arm-atollic-eabi/6.3.1/armv7-m\libgcc.a(_arm_muldivsf3.o)
 .ARM.attributes
                0x00000c4b       0x1d c:/program files (x86)/atollic/truestudio for stm32 9.1.0/armtools/bin/../lib/gcc/arm-atollic-eabi/6.3.1/armv7-m\libgcc.a(_arm_cmpsf2.o)
 .ARM.attributes
                0x00000c68       0x1d c:/program files (x86)/atollic/truestudio for stm32 9.1.0/armtools/bin/../lib/gcc/arm-atollic-eabi/6.3.1/armv7-m\libgcc.a(_arm_unordsf2.o)
 .ARM.attributes
                0x00000c85       0x1d c:/program files (x86)/atollic/truestudio for stm32 9.1.0/armtools/bin/../lib/gcc/arm-atollic-eabi/6.3.1/armv7-m\libgcc.a(_arm_fixsfsi.o)
 .ARM.attributes
                0x00000ca2       0x1d c:/program files (x86)/atollic/truestudio for stm32 9.1.0/armtools/bin/../lib/gcc/arm-atollic-eabi/6.3.1/armv7-m\libgcc.a(_arm_fixunssfsi.o)
 .ARM.attributes
                0x00000cbf       0x1d c:/program files (x86)/atollic/truestudio for stm32 9.1.0/armtools/bin/../lib/gcc/arm-atollic-eabi/6.3.1/armv7-m/crtn.o
OUTPUT(stm32grbl11.elf elf32-littlearm)

.debug_info     0x00000000    0x272a6
 .debug_info    0x00000000      0x551 Libraries\STM32F10x_StdPeriph_Driver\src\misc.o
 .debug_info    0x00000551      0x365 Libraries\STM32F10x_StdPeriph_Driver\src\stm32f10x_exti.o
 .debug_info    0x000008b6     0x1594 Libraries\STM32F10x_StdPeriph_Driver\src\stm32f10x_flash.o
 .debug_info    0x00001e4a      0x89a Libraries\STM32F10x_StdPeriph_Driver\src\stm32f10x_gpio.o
 .debug_info    0x000026e4      0x94b Libraries\STM32F10x_StdPeriph_Driver\src\stm32f10x_rcc.o
 .debug_info    0x0000302f     0x2596 Libraries\STM32F10x_StdPeriph_Driver\src\stm32f10x_tim.o
 .debug_info    0x000055c5     0x1194 src\coolant_control.o
 .debug_info    0x00006759     0x10c7 src\eeprom.o
 .debug_info    0x00007820     0x1552 src\gcode.o
 .debug_info    0x00008d72      0xeb3 src\jog.o
 .debug_info    0x00009c25     0x1955 src\limits.o
 .debug_info    0x0000b57a     0x1677 src\main.o
 .debug_info    0x0000cbf1     0x186d src\motion_control.o
 .debug_info    0x0000e45e      0xfd5 src\nuts_bolts.o
 .debug_info    0x0000f433     0x1551 src\planner.o
 .debug_info    0x00010984     0x1301 src\print.o
 .debug_info    0x00011c85      0xfa0 src\probe.o
 .debug_info    0x00012c25     0x1a87 src\protocol.o
 .debug_info    0x000146ac     0x3c68 src\report.o
 .debug_info    0x00018314     0x10da src\serial.o
 .debug_info    0x000193ee     0x163d src\settings.o
 .debug_info    0x0001aa2b     0x173e src\spindle_control.o
 .debug_info    0x0001c169       0x8e src\startup_stm32f10x_md.o
 .debug_info    0x0001c1f7     0x249c src\stepper.o
 .debug_info    0x0001e693     0x1bbc src\system.o
 .debug_info    0x0002024f      0x4cb src\system_stm32f10x.o
 .debug_info    0x0002071a      0xf61 stm_usb_fs_lib\src\usb_core.o
 .debug_info    0x0002167b      0x50c stm_usb_fs_lib\src\usb_init.o
 .debug_info    0x00021b87      0x5bd stm_usb_fs_lib\src\usb_int.o
 .debug_info    0x00022144      0x593 stm_usb_fs_lib\src\usb_mem.o
 .debug_info    0x000226d7     0x10ae stm_usb_fs_lib\src\usb_regs.o
 .debug_info    0x00023785      0x60b stm_usb_fs_lib\src\usb_sil.o
 .debug_info    0x00023d90      0x9a2 usb\hw_config.o
 .debug_info    0x00024732      0x5a6 usb\usb_desc.o
 .debug_info    0x00024cd8      0x80c usb\usb_endp.o
 .debug_info    0x000254e4      0x55e usb\usb_istr.o
 .debug_info    0x00025a42      0xbfb usb\usb_prop.o
 .debug_info    0x0002663d      0x728 usb\usb_pwr.o
 .debug_info    0x00026d65      0x541 util\stm32f10x_it.o

.debug_abbrev   0x00000000     0x6658
 .debug_abbrev  0x00000000      0x181 Libraries\STM32F10x_StdPeriph_Driver\src\misc.o
 .debug_abbrev  0x00000181      0x1c1 Libraries\STM32F10x_StdPeriph_Driver\src\stm32f10x_exti.o
 .debug_abbrev  0x00000342      0x274 Libraries\STM32F10x_StdPeriph_Driver\src\stm32f10x_flash.o
 .debug_abbrev  0x000005b6      0x213 Libraries\STM32F10x_StdPeriph_Driver\src\stm32f10x_gpio.o
 .debug_abbrev  0x000007c9      0x27f Libraries\STM32F10x_StdPeriph_Driver\src\stm32f10x_rcc.o
 .debug_abbrev  0x00000a48      0x2c8 Libraries\STM32F10x_StdPeriph_Driver\src\stm32f10x_tim.o
 .debug_abbrev  0x00000d10      0x304 src\coolant_control.o
 .debug_abbrev  0x00001014      0x3a3 src\eeprom.o
 .debug_abbrev  0x000013b7      0x2e7 src\gcode.o
 .debug_abbrev  0x0000169e      0x1f4 src\jog.o
 .debug_abbrev  0x00001892      0x430 src\limits.o
 .debug_abbrev  0x00001cc2      0x2c3 src\main.o
 .debug_abbrev  0x00001f85      0x3a0 src\motion_control.o
 .debug_abbrev  0x00002325      0x27f src\nuts_bolts.o
 .debug_abbrev  0x000025a4      0x4c3 src\planner.o
 .debug_abbrev  0x00002a67      0x33b src\print.o
 .debug_abbrev  0x00002da2      0x2aa src\probe.o
 .debug_abbrev  0x0000304c      0x321 src\protocol.o
 .debug_abbrev  0x0000336d      0x429 src\report.o
 .debug_abbrev  0x00003796      0x2cd src\serial.o
 .debug_abbrev  0x00003a63      0x3a8 src\settings.o
 .debug_abbrev  0x00003e0b      0x3c4 src\spindle_control.o
 .debug_abbrev  0x000041cf       0x12 src\startup_stm32f10x_md.o
 .debug_abbrev  0x000041e1      0x462 src\stepper.o
 .debug_abbrev  0x00004643      0x4c7 src\system.o
 .debug_abbrev  0x00004b0a      0x18c src\system_stm32f10x.o
 .debug_abbrev  0x00004c96      0x3e1 stm_usb_fs_lib\src\usb_core.o
 .debug_abbrev  0x00005077      0x11b stm_usb_fs_lib\src\usb_init.o
 .debug_abbrev  0x00005192      0x194 stm_usb_fs_lib\src\usb_int.o
 .debug_abbrev  0x00005326      0x140 stm_usb_fs_lib\src\usb_mem.o
 .debug_abbrev  0x00005466      0x2ea stm_usb_fs_lib\src\usb_regs.o
 .debug_abbrev  0x00005750      0x193 stm_usb_fs_lib\src\usb_sil.o
 .debug_abbrev  0x000058e3      0x28d usb\hw_config.o
 .debug_abbrev  0x00005b70      0x11b usb\usb_desc.o
 .debug_abbrev  0x00005c8b      0x22c usb\usb_endp.o
 .debug_abbrev  0x00005eb7      0x15c usb\usb_istr.o
 .debug_abbrev  0x00006013      0x28b usb\usb_prop.o
 .debug_abbrev  0x0000629e      0x240 usb\usb_pwr.o
 .debug_abbrev  0x000064de      0x17a util\stm32f10x_it.o

.debug_loc      0x00000000     0xf7fb
 .debug_loc     0x00000000      0x147 Libraries\STM32F10x_StdPeriph_Driver\src\misc.o
 .debug_loc     0x00000147      0x212 Libraries\STM32F10x_StdPeriph_Driver\src\stm32f10x_exti.o
 .debug_loc     0x00000359     0x2d32 Libraries\STM32F10x_StdPeriph_Driver\src\stm32f10x_flash.o
 .debug_loc     0x0000308b     0x14f5 Libraries\STM32F10x_StdPeriph_Driver\src\stm32f10x_gpio.o
 .debug_loc     0x00004580      0x705 Libraries\STM32F10x_StdPeriph_Driver\src\stm32f10x_rcc.o
 .debug_loc     0x00004c85     0x24cb Libraries\STM32F10x_StdPeriph_Driver\src\stm32f10x_tim.o
 .debug_loc     0x00007150      0x10f src\coolant_control.o
 .debug_loc     0x0000725f      0x205 src\eeprom.o
 .debug_loc     0x00007464     0x11f6 src\gcode.o
 .debug_loc     0x0000865a       0x5a src\jog.o
 .debug_loc     0x000086b4      0x643 src\limits.o
 .debug_loc     0x00008cf7       0x4b src\main.o
 .debug_loc     0x00008d42      0x94d src\motion_control.o
 .debug_loc     0x0000968f      0x62d src\nuts_bolts.o
 .debug_loc     0x00009cbc      0x639 src\planner.o
 .debug_loc     0x0000a2f5      0x6f7 src\print.o
 .debug_loc     0x0000a9ec       0x27 src\probe.o
 .debug_loc     0x0000aa13      0x2fa src\protocol.o
 .debug_loc     0x0000ad0d     0x105a src\report.o
 .debug_loc     0x0000bd67      0x281 src\serial.o
 .debug_loc     0x0000bfe8      0x4f9 src\settings.o
 .debug_loc     0x0000c4e1      0x3ba src\spindle_control.o
 .debug_loc     0x0000c89b      0xbbe src\stepper.o
 .debug_loc     0x0000d459      0x568 src\system.o
 .debug_loc     0x0000d9c1       0xbc src\system_stm32f10x.o
 .debug_loc     0x0000da7d      0xacd stm_usb_fs_lib\src\usb_core.o
 .debug_loc     0x0000e54a       0x7d stm_usb_fs_lib\src\usb_int.o
 .debug_loc     0x0000e5c7      0x26c stm_usb_fs_lib\src\usb_mem.o
 .debug_loc     0x0000e833      0xa09 stm_usb_fs_lib\src\usb_regs.o
 .debug_loc     0x0000f23c       0xcf stm_usb_fs_lib\src\usb_sil.o
 .debug_loc     0x0000f30b      0x150 usb\hw_config.o
 .debug_loc     0x0000f45b       0xe3 usb\usb_endp.o
 .debug_loc     0x0000f53e      0x1e1 usb\usb_prop.o
 .debug_loc     0x0000f71f       0xdc usb\usb_pwr.o

.debug_aranges  0x00000000     0x10e8
 .debug_aranges
                0x00000000       0x40 Libraries\STM32F10x_StdPeriph_Driver\src\misc.o
 .debug_aranges
                0x00000040       0x50 Libraries\STM32F10x_StdPeriph_Driver\src\stm32f10x_exti.o
 .debug_aranges
                0x00000090       0xd8 Libraries\STM32F10x_StdPeriph_Driver\src\stm32f10x_flash.o
 .debug_aranges
                0x00000168       0xa8 Libraries\STM32F10x_StdPeriph_Driver\src\stm32f10x_gpio.o
 .debug_aranges
                0x00000210      0x118 Libraries\STM32F10x_StdPeriph_Driver\src\stm32f10x_rcc.o
 .debug_aranges
                0x00000328      0x2c0 Libraries\STM32F10x_StdPeriph_Driver\src\stm32f10x_tim.o
 .debug_aranges
                0x000005e8       0x40 src\coolant_control.o
 .debug_aranges
                0x00000628       0x48 src\eeprom.o
 .debug_aranges
                0x00000670       0x30 src\gcode.o
 .debug_aranges
                0x000006a0       0x20 src\jog.o
 .debug_aranges
                0x000006c0       0x48 src\limits.o
 .debug_aranges
                0x00000708       0x30 src\main.o
 .debug_aranges
                0x00000738       0x48 src\motion_control.o
 .debug_aranges
                0x00000780       0x48 src\nuts_bolts.o
 .debug_aranges
                0x000007c8       0x98 src\planner.o
 .debug_aranges
                0x00000860       0x58 src\print.o
 .debug_aranges
                0x000008b8       0x38 src\probe.o
 .debug_aranges
                0x000008f0       0x48 src\protocol.o
 .debug_aranges
                0x00000938       0x90 src\report.o
 .debug_aranges
                0x000009c8       0x58 src\serial.o
 .debug_aranges
                0x00000a20       0x70 src\settings.o
 .debug_aranges
                0x00000a90       0x50 src\spindle_control.o
 .debug_aranges
                0x00000ae0       0x28 src\startup_stm32f10x_md.o
 .debug_aranges
                0x00000b08       0x70 src\stepper.o
 .debug_aranges
                0x00000b78       0xa8 src\system.o
 .debug_aranges
                0x00000c20       0x28 src\system_stm32f10x.o
 .debug_aranges
                0x00000c48       0x98 stm_usb_fs_lib\src\usb_core.o
 .debug_aranges
                0x00000ce0       0x20 stm_usb_fs_lib\src\usb_init.o
 .debug_aranges
                0x00000d00       0x28 stm_usb_fs_lib\src\usb_int.o
 .debug_aranges
                0x00000d28       0x28 stm_usb_fs_lib\src\usb_mem.o
 .debug_aranges
                0x00000d50      0x1a0 stm_usb_fs_lib\src\usb_regs.o
 .debug_aranges
                0x00000ef0       0x30 stm_usb_fs_lib\src\usb_sil.o
 .debug_aranges
                0x00000f20       0x50 usb\hw_config.o
 .debug_aranges
                0x00000f70       0x18 usb\usb_desc.o
 .debug_aranges
                0x00000f88       0x38 usb\usb_endp.o
 .debug_aranges
                0x00000fc0       0x20 usb\usb_istr.o
 .debug_aranges
                0x00000fe0       0x80 usb\usb_prop.o
 .debug_aranges
                0x00001060       0x40 usb\usb_pwr.o
 .debug_aranges
                0x000010a0       0x48 util\stm32f10x_it.o

.debug_ranges   0x00000000     0x35f0
 .debug_ranges  0x00000000       0x30 Libraries\STM32F10x_StdPeriph_Driver\src\misc.o
 .debug_ranges  0x00000030       0x40 Libraries\STM32F10x_StdPeriph_Driver\src\stm32f10x_exti.o
 .debug_ranges  0x00000070      0xf18 Libraries\STM32F10x_StdPeriph_Driver\src\stm32f10x_flash.o
 .debug_ranges  0x00000f88       0x98 Libraries\STM32F10x_StdPeriph_Driver\src\stm32f10x_gpio.o
 .debug_ranges  0x00001020      0x128 Libraries\STM32F10x_StdPeriph_Driver\src\stm32f10x_rcc.o
 .debug_ranges  0x00001148      0x4c0 Libraries\STM32F10x_StdPeriph_Driver\src\stm32f10x_tim.o
 .debug_ranges  0x00001608       0x30 src\coolant_control.o
 .debug_ranges  0x00001638       0x80 src\eeprom.o
 .debug_ranges  0x000016b8       0xb8 src\gcode.o
 .debug_ranges  0x00001770       0x10 src\jog.o
 .debug_ranges  0x00001780       0xe8 src\limits.o
 .debug_ranges  0x00001868       0x40 src\main.o
 .debug_ranges  0x000018a8       0xd8 src\motion_control.o
 .debug_ranges  0x00001980       0x38 src\nuts_bolts.o
 .debug_ranges  0x000019b8      0x1b8 src\planner.o
 .debug_ranges  0x00001b70      0x108 src\print.o
 .debug_ranges  0x00001c78       0x28 src\probe.o
 .debug_ranges  0x00001ca0      0x2a8 src\protocol.o
 .debug_ranges  0x00001f48      0x8a0 src\report.o
 .debug_ranges  0x000027e8       0x48 src\serial.o
 .debug_ranges  0x00002830      0x140 src\settings.o
 .debug_ranges  0x00002970      0x140 src\spindle_control.o
 .debug_ranges  0x00002ab0       0x20 src\startup_stm32f10x_md.o
 .debug_ranges  0x00002ad0      0x248 src\stepper.o
 .debug_ranges  0x00002d18      0x108 src\system.o
 .debug_ranges  0x00002e20       0x40 src\system_stm32f10x.o
 .debug_ranges  0x00002e60      0x1d0 stm_usb_fs_lib\src\usb_core.o
 .debug_ranges  0x00003030       0x10 stm_usb_fs_lib\src\usb_init.o
 .debug_ranges  0x00003040       0x30 stm_usb_fs_lib\src\usb_int.o
 .debug_ranges  0x00003070       0x18 stm_usb_fs_lib\src\usb_mem.o
 .debug_ranges  0x00003088      0x348 stm_usb_fs_lib\src\usb_regs.o
 .debug_ranges  0x000033d0       0x20 stm_usb_fs_lib\src\usb_sil.o
 .debug_ranges  0x000033f0       0xc0 usb\hw_config.o
 .debug_ranges  0x000034b0       0x28 usb\usb_endp.o
 .debug_ranges  0x000034d8       0x10 usb\usb_istr.o
 .debug_ranges  0x000034e8       0x70 usb\usb_prop.o
 .debug_ranges  0x00003558       0x60 usb\usb_pwr.o
 .debug_ranges  0x000035b8       0x38 util\stm32f10x_it.o

.debug_line     0x00000000     0xc1e9
 .debug_line    0x00000000      0x271 Libraries\STM32F10x_StdPeriph_Driver\src\misc.o
 .debug_line    0x00000271      0x2c3 Libraries\STM32F10x_StdPeriph_Driver\src\stm32f10x_exti.o
 .debug_line    0x00000534      0x947 Libraries\STM32F10x_StdPeriph_Driver\src\stm32f10x_flash.o
 .debug_line    0x00000e7b      0x500 Libraries\STM32F10x_StdPeriph_Driver\src\stm32f10x_gpio.o
 .debug_line    0x0000137b      0x4f9 Libraries\STM32F10x_StdPeriph_Driver\src\stm32f10x_rcc.o
 .debug_line    0x00001874      0xd69 Libraries\STM32F10x_StdPeriph_Driver\src\stm32f10x_tim.o
 .debug_line    0x000025dd      0x442 src\coolant_control.o
 .debug_line    0x00002a1f      0x42f src\eeprom.o
 .debug_line    0x00002e4e      0x827 src\gcode.o
 .debug_line    0x00003675      0x35e src\jog.o
 .debug_line    0x000039d3      0x62a src\limits.o
 .debug_line    0x00003ffd      0x603 src\main.o
 .debug_line    0x00004600      0x5a5 src\motion_control.o
 .debug_line    0x00004ba5      0x434 src\nuts_bolts.o
 .debug_line    0x00004fd9      0x647 src\planner.o
 .debug_line    0x00005620      0x4f4 src\print.o
 .debug_line    0x00005b14      0x3e6 src\probe.o
 .debug_line    0x00005efa      0x9e1 src\protocol.o
 .debug_line    0x000068db      0xa65 src\report.o
 .debug_line    0x00007340      0x48e src\serial.o
 .debug_line    0x000077ce      0x62f src\settings.o
 .debug_line    0x00007dfd      0x551 src\spindle_control.o
 .debug_line    0x0000834e       0x7c src\startup_stm32f10x_md.o
 .debug_line    0x000083ca      0x9e7 src\stepper.o
 .debug_line    0x00008db1      0x784 src\system.o
 .debug_line    0x00009535      0x227 src\system_stm32f10x.o
 .debug_line    0x0000975c      0x675 stm_usb_fs_lib\src\usb_core.o
 .debug_line    0x00009dd1      0x230 stm_usb_fs_lib\src\usb_init.o
 .debug_line    0x0000a001      0x2af stm_usb_fs_lib\src\usb_int.o
 .debug_line    0x0000a2b0      0x25d stm_usb_fs_lib\src\usb_mem.o
 .debug_line    0x0000a50d      0x613 stm_usb_fs_lib\src\usb_regs.o
 .debug_line    0x0000ab20      0x276 stm_usb_fs_lib\src\usb_sil.o
 .debug_line    0x0000ad96      0x357 usb\hw_config.o
 .debug_line    0x0000b0ed      0x215 usb\usb_desc.o
 .debug_line    0x0000b302      0x317 usb\usb_endp.o
 .debug_line    0x0000b619      0x26f usb\usb_istr.o
 .debug_line    0x0000b888      0x396 usb\usb_prop.o
 .debug_line    0x0000bc1e      0x308 usb\usb_pwr.o
 .debug_line    0x0000bf26      0x2c3 util\stm32f10x_it.o

.debug_str      0x00000000     0x53a9
 .debug_str     0x00000000      0x3e7 Libraries\STM32F10x_StdPeriph_Driver\src\misc.o
                                0x448 (size before relaxing)
 .debug_str     0x000003e7      0x1d7 Libraries\STM32F10x_StdPeriph_Driver\src\stm32f10x_exti.o
                                0x3d3 (size before relaxing)
 .debug_str     0x000005be      0x438 Libraries\STM32F10x_StdPeriph_Driver\src\stm32f10x_flash.o
                                0x672 (size before relaxing)
 .debug_str     0x000009f6      0x38e Libraries\STM32F10x_StdPeriph_Driver\src\stm32f10x_gpio.o
                                0x5ba (size before relaxing)
 .debug_str     0x00000d84      0x428 Libraries\STM32F10x_StdPeriph_Driver\src\stm32f10x_rcc.o
                                0x6a4 (size before relaxing)
 .debug_str     0x000011ac      0xba8 Libraries\STM32F10x_StdPeriph_Driver\src\stm32f10x_tim.o
                                0xe95 (size before relaxing)
 .debug_str     0x00001d54      0x7de src\coolant_control.o
                                0xc33 (size before relaxing)
 .debug_str     0x00002532       0xee src\eeprom.o
                                0xb9e (size before relaxing)
 .debug_str     0x00002620      0x2ae src\gcode.o
                                0xd28 (size before relaxing)
 .debug_str     0x000028ce       0x59 src\jog.o
                                0xae2 (size before relaxing)
 .debug_str     0x00002927      0x45c src\limits.o
                               0x12c1 (size before relaxing)
 .debug_str     0x00002d83      0x529 src\main.o
                               0x1200 (size before relaxing)
 .debug_str     0x000032ac      0x1a3 src\motion_control.o
                               0x10cc (size before relaxing)
 .debug_str     0x0000344f       0xca src\nuts_bolts.o
                                0xb7b (size before relaxing)
 .debug_str     0x00003519      0x321 src\planner.o
                                0xe63 (size before relaxing)
 .debug_str     0x0000383a       0xda src\print.o
                                0xb07 (size before relaxing)
 .debug_str     0x00003914       0x35 src\probe.o
                                0xc02 (size before relaxing)
 .debug_str     0x00003949      0x1a4 src\protocol.o
                                0xe85 (size before relaxing)
 .debug_str     0x00003aed      0x282 src\report.o
                                0xe30 (size before relaxing)
 .debug_str     0x00003d6f      0x104 src\serial.o
                                0xbe3 (size before relaxing)
 .debug_str     0x00003e73      0x10f src\settings.o
                                0xc8d (size before relaxing)
 .debug_str     0x00003f82       0x77 src\spindle_control.o
                                0xf03 (size before relaxing)
 .debug_str     0x00003ff9      0x3a8 src\stepper.o
                               0x1810 (size before relaxing)
 .debug_str     0x000043a1       0x79 src\system.o
                               0x14ce (size before relaxing)
 .debug_str     0x0000441a       0x57 src\system_stm32f10x.o
                                0x345 (size before relaxing)
 .debug_str     0x00004471      0x50b stm_usb_fs_lib\src\usb_core.o
                                0xb98 (size before relaxing)
 .debug_str     0x0000497c       0x21 stm_usb_fs_lib\src\usb_init.o
                                0x610 (size before relaxing)
 .debug_str     0x0000499d       0x4a stm_usb_fs_lib\src\usb_int.o
                                0x661 (size before relaxing)
 .debug_str     0x000049e7       0x4a stm_usb_fs_lib\src\usb_mem.o
                                0x658 (size before relaxing)
 .debug_str     0x00004a31      0x381 stm_usb_fs_lib\src\usb_regs.o
                                0x9e6 (size before relaxing)
 .debug_str     0x00004db2       0x76 stm_usb_fs_lib\src\usb_sil.o
                                0x6b6 (size before relaxing)
 .debug_str     0x00004e28      0x103 usb\hw_config.o
                                0xbcc (size before relaxing)
 .debug_str     0x00004f2b       0x12 usb\usb_desc.o
                                0x6b5 (size before relaxing)
 .debug_str     0x00004f3d       0x67 usb\usb_endp.o
                                0x818 (size before relaxing)
 .debug_str     0x00004fa4       0x27 usb\usb_istr.o
                                0x658 (size before relaxing)
 .debug_str     0x00004fcb      0x248 usb\usb_prop.o
                                0xae7 (size before relaxing)
 .debug_str     0x00005213       0xcf usb\usb_pwr.o
                                0x78b (size before relaxing)
 .debug_str     0x000052e2       0xc7 util\stm32f10x_it.o
                                0x6b6 (size before relaxing)

.comment        0x00000000       0x7c
 .comment       0x00000000       0x7c Libraries\STM32F10x_StdPeriph_Driver\src\misc.o
                                 0x7d (size before relaxing)
 .comment       0x0000007c       0x7d Libraries\STM32F10x_StdPeriph_Driver\src\stm32f10x_exti.o
 .comment       0x0000007c       0x7d Libraries\STM32F10x_StdPeriph_Driver\src\stm32f10x_flash.o
 .comment       0x0000007c       0x7d Libraries\STM32F10x_StdPeriph_Driver\src\stm32f10x_gpio.o
 .comment       0x0000007c       0x7d Libraries\STM32F10x_StdPeriph_Driver\src\stm32f10x_rcc.o
 .comment       0x0000007c       0x7d Libraries\STM32F10x_StdPeriph_Driver\src\stm32f10x_tim.o
 .comment       0x0000007c       0x7d src\coolant_control.o
 .comment       0x0000007c       0x7d src\eeprom.o
 .comment       0x0000007c       0x7d src\gcode.o
 .comment       0x0000007c       0x7d src\jog.o
 .comment       0x0000007c       0x7d src\limits.o
 .comment       0x0000007c       0x7d src\main.o
 .comment       0x0000007c       0x7d src\motion_control.o
 .comment       0x0000007c       0x7d src\nuts_bolts.o
 .comment       0x0000007c       0x7d src\planner.o
 .comment       0x0000007c       0x7d src\print.o
 .comment       0x0000007c       0x7d src\probe.o
 .comment       0x0000007c       0x7d src\protocol.o
 .comment       0x0000007c       0x7d src\report.o
 .comment       0x0000007c       0x7d src\serial.o
 .comment       0x0000007c       0x7d src\settings.o
 .comment       0x0000007c       0x7d src\spindle_control.o
 .comment       0x0000007c       0x7d src\stepper.o
 .comment       0x0000007c       0x7d src\system.o
 .comment       0x0000007c       0x7d src\system_stm32f10x.o
 .comment       0x0000007c       0x7d stm_usb_fs_lib\src\usb_core.o
 .comment       0x0000007c       0x7d stm_usb_fs_lib\src\usb_init.o
 .comment       0x0000007c       0x7d stm_usb_fs_lib\src\usb_int.o
 .comment       0x0000007c       0x7d stm_usb_fs_lib\src\usb_mem.o
 .comment       0x0000007c       0x7d stm_usb_fs_lib\src\usb_regs.o
 .comment       0x0000007c       0x7d stm_usb_fs_lib\src\usb_sil.o
 .comment       0x0000007c       0x7d usb\hw_config.o
 .comment       0x0000007c       0x7d usb\usb_desc.o
 .comment       0x0000007c       0x7d usb\usb_endp.o
 .comment       0x0000007c       0x7d usb\usb_istr.o
 .comment       0x0000007c       0x7d usb\usb_prop.o
 .comment       0x0000007c       0x7d usb\usb_pwr.o
 .comment       0x0000007c       0x7d util\stm32f10x_it.o

.debug_frame    0x00000000     0x32e8
 .debug_frame   0x00000000       0x70 Libraries\STM32F10x_StdPeriph_Driver\src\misc.o
 .debug_frame   0x00000070       0xa8 Libraries\STM32F10x_StdPeriph_Driver\src\stm32f10x_exti.o
 .debug_frame   0x00000118      0x284 Libraries\STM32F10x_StdPeriph_Driver\src\stm32f10x_flash.o
 .debug_frame   0x0000039c      0x1b0 Libraries\STM32F10x_StdPeriph_Driver\src\stm32f10x_gpio.o
 .debug_frame   0x0000054c      0x228 Libraries\STM32F10x_StdPeriph_Driver\src\stm32f10x_rcc.o
 .debug_frame   0x00000774      0x73c Libraries\STM32F10x_StdPeriph_Driver\src\stm32f10x_tim.o
 .debug_frame   0x00000eb0       0xa4 src\coolant_control.o
 .debug_frame   0x00000f54       0xb8 src\eeprom.o
 .debug_frame   0x0000100c       0x84 src\gcode.o
 .debug_frame   0x00001090       0x2c src\jog.o
 .debug_frame   0x000010bc       0xd8 src\limits.o
 .debug_frame   0x00001194       0x6c src\main.o
 .debug_frame   0x00001200       0xf0 src\motion_control.o
 .debug_frame   0x000012f0       0xe4 src\nuts_bolts.o
 .debug_frame   0x000013d4      0x1c0 src\planner.o
 .debug_frame   0x00001594      0x16c src\print.o
 .debug_frame   0x00001700       0x74 src\probe.o
 .debug_frame   0x00001774      0x100 src\protocol.o
 .debug_frame   0x00001874      0x1fc src\report.o
 .debug_frame   0x00001a70       0xc8 src\serial.o
 .debug_frame   0x00001b38      0x160 src\settings.o
 .debug_frame   0x00001c98       0xd0 src\spindle_control.o
 .debug_frame   0x00001d68      0x1ac src\stepper.o
 .debug_frame   0x00001f14      0x1a4 src\system.o
 .debug_frame   0x000020b8       0x48 src\system_stm32f10x.o
 .debug_frame   0x00002100      0x1c4 stm_usb_fs_lib\src\usb_core.o
 .debug_frame   0x000022c4       0x30 stm_usb_fs_lib\src\usb_init.o
 .debug_frame   0x000022f4       0x60 stm_usb_fs_lib\src\usb_int.o
 .debug_frame   0x00002354       0x3c stm_usb_fs_lib\src\usb_mem.o
 .debug_frame   0x00002390      0x3ec stm_usb_fs_lib\src\usb_regs.o
 .debug_frame   0x0000277c       0x64 stm_usb_fs_lib\src\usb_sil.o
 .debug_frame   0x000027e0       0xa4 usb\hw_config.o
 .debug_frame   0x00002884       0x78 usb\usb_endp.o
 .debug_frame   0x000028fc       0x38 usb\usb_istr.o
 .debug_frame   0x00002934      0x10c usb\usb_prop.o
 .debug_frame   0x00002a40       0x8c usb\usb_pwr.o
 .debug_frame   0x00002acc       0xb0 util\stm32f10x_it.o
 .debug_frame   0x00002b7c       0x2c c:/program files (x86)/atollic/truestudio for stm32 9.1.0/armtools/bin/../lib/gcc/arm-atollic-eabi/6.3.1/../../../../arm-atollic-eabi/lib/armv7-m\libc.a(lib_a-init.o)
 .debug_frame   0x00002ba8       0x28 c:/program files (x86)/atollic/truestudio for stm32 9.1.0/armtools/bin/../lib/gcc/arm-atollic-eabi/6.3.1/../../../../arm-atollic-eabi/lib/armv7-m\libc.a(lib_a-memcmp.o)
 .debug_frame   0x00002bd0       0x20 c:/program files (x86)/atollic/truestudio for stm32 9.1.0/armtools/bin/../lib/gcc/arm-atollic-eabi/6.3.1/../../../../arm-atollic-eabi/lib/armv7-m\libc.a(lib_a-memset.o)
 .debug_frame   0x00002bf0       0x2c c:/program files (x86)/atollic/truestudio for stm32 9.1.0/armtools/bin/../lib/gcc/arm-atollic-eabi/6.3.1/../../../../arm-atollic-eabi/lib/armv7-m\libm.a(lib_a-sf_ceil.o)
 .debug_frame   0x00002c1c       0x2c c:/program files (x86)/atollic/truestudio for stm32 9.1.0/armtools/bin/../lib/gcc/arm-atollic-eabi/6.3.1/../../../../arm-atollic-eabi/lib/armv7-m\libm.a(lib_a-sf_cos.o)
 .debug_frame   0x00002c48       0x2c c:/program files (x86)/atollic/truestudio for stm32 9.1.0/armtools/bin/../lib/gcc/arm-atollic-eabi/6.3.1/../../../../arm-atollic-eabi/lib/armv7-m\libm.a(lib_a-sf_floor.o)
 .debug_frame   0x00002c74       0x28 c:/program files (x86)/atollic/truestudio for stm32 9.1.0/armtools/bin/../lib/gcc/arm-atollic-eabi/6.3.1/../../../../arm-atollic-eabi/lib/armv7-m\libm.a(lib_a-sf_lround.o)
 .debug_frame   0x00002c9c       0x2c c:/program files (x86)/atollic/truestudio for stm32 9.1.0/armtools/bin/../lib/gcc/arm-atollic-eabi/6.3.1/../../../../arm-atollic-eabi/lib/armv7-m\libm.a(lib_a-sf_sin.o)
 .debug_frame   0x00002cc8       0x20 c:/program files (x86)/atollic/truestudio for stm32 9.1.0/armtools/bin/../lib/gcc/arm-atollic-eabi/6.3.1/../../../../arm-atollic-eabi/lib/armv7-m\libm.a(lib_a-wf_atan2.o)
 .debug_frame   0x00002ce8       0x38 c:/program files (x86)/atollic/truestudio for stm32 9.1.0/armtools/bin/../lib/gcc/arm-atollic-eabi/6.3.1/../../../../arm-atollic-eabi/lib/armv7-m\libm.a(lib_a-wf_sqrt.o)
 .debug_frame   0x00002d20       0x3c c:/program files (x86)/atollic/truestudio for stm32 9.1.0/armtools/bin/../lib/gcc/arm-atollic-eabi/6.3.1/../../../../arm-atollic-eabi/lib/armv7-m\libm.a(lib_a-ef_atan2.o)
 .debug_frame   0x00002d5c       0x40 c:/program files (x86)/atollic/truestudio for stm32 9.1.0/armtools/bin/../lib/gcc/arm-atollic-eabi/6.3.1/../../../../arm-atollic-eabi/lib/armv7-m\libm.a(lib_a-ef_rem_pio2.o)
 .debug_frame   0x00002d9c       0x2c c:/program files (x86)/atollic/truestudio for stm32 9.1.0/armtools/bin/../lib/gcc/arm-atollic-eabi/6.3.1/../../../../arm-atollic-eabi/lib/armv7-m\libm.a(lib_a-ef_sqrt.o)
 .debug_frame   0x00002dc8       0x34 c:/program files (x86)/atollic/truestudio for stm32 9.1.0/armtools/bin/../lib/gcc/arm-atollic-eabi/6.3.1/../../../../arm-atollic-eabi/lib/armv7-m\libm.a(lib_a-kf_cos.o)
 .debug_frame   0x00002dfc       0x44 c:/program files (x86)/atollic/truestudio for stm32 9.1.0/armtools/bin/../lib/gcc/arm-atollic-eabi/6.3.1/../../../../arm-atollic-eabi/lib/armv7-m\libm.a(lib_a-kf_rem_pio2.o)
 .debug_frame   0x00002e40       0x34 c:/program files (x86)/atollic/truestudio for stm32 9.1.0/armtools/bin/../lib/gcc/arm-atollic-eabi/6.3.1/../../../../arm-atollic-eabi/lib/armv7-m\libm.a(lib_a-kf_sin.o)
 .debug_frame   0x00002e74       0x20 c:/program files (x86)/atollic/truestudio for stm32 9.1.0/armtools/bin/../lib/gcc/arm-atollic-eabi/6.3.1/../../../../arm-atollic-eabi/lib/armv7-m\libm.a(lib_a-s_matherr.o)
 .debug_frame   0x00002e94       0x30 c:/program files (x86)/atollic/truestudio for stm32 9.1.0/armtools/bin/../lib/gcc/arm-atollic-eabi/6.3.1/../../../../arm-atollic-eabi/lib/armv7-m\libm.a(lib_a-sf_atan.o)
 .debug_frame   0x00002ec4       0x20 c:/program files (x86)/atollic/truestudio for stm32 9.1.0/armtools/bin/../lib/gcc/arm-atollic-eabi/6.3.1/../../../../arm-atollic-eabi/lib/armv7-m\libm.a(lib_a-sf_fabs.o)
 .debug_frame   0x00002ee4       0x28 c:/program files (x86)/atollic/truestudio for stm32 9.1.0/armtools/bin/../lib/gcc/arm-atollic-eabi/6.3.1/../../../../arm-atollic-eabi/lib/armv7-m\libm.a(lib_a-sf_scalbn.o)
 .debug_frame   0x00002f0c       0x20 c:/program files (x86)/atollic/truestudio for stm32 9.1.0/armtools/bin/../lib/gcc/arm-atollic-eabi/6.3.1/../../../../arm-atollic-eabi/lib/armv7-m\libm.a(lib_a-sf_copysign.o)
 .debug_frame   0x00002f2c       0x20 c:/program files (x86)/atollic/truestudio for stm32 9.1.0/armtools/bin/../lib/gcc/arm-atollic-eabi/6.3.1/../../../../arm-atollic-eabi/lib/armv7-m\libc.a(lib_a-errno.o)
 .debug_frame   0x00002f4c       0xac c:/program files (x86)/atollic/truestudio for stm32 9.1.0/armtools/bin/../lib/gcc/arm-atollic-eabi/6.3.1/armv7-m\libgcc.a(_arm_addsubdf3.o)
 .debug_frame   0x00002ff8       0x50 c:/program files (x86)/atollic/truestudio for stm32 9.1.0/armtools/bin/../lib/gcc/arm-atollic-eabi/6.3.1/armv7-m\libgcc.a(_arm_muldivdf3.o)
 .debug_frame   0x00003048       0xc4 c:/program files (x86)/atollic/truestudio for stm32 9.1.0/armtools/bin/../lib/gcc/arm-atollic-eabi/6.3.1/armv7-m\libgcc.a(_arm_cmpdf2.o)
 .debug_frame   0x0000310c       0x24 c:/program files (x86)/atollic/truestudio for stm32 9.1.0/armtools/bin/../lib/gcc/arm-atollic-eabi/6.3.1/armv7-m\libgcc.a(_arm_truncdfsf2.o)
 .debug_frame   0x00003130       0x4c c:/program files (x86)/atollic/truestudio for stm32 9.1.0/armtools/bin/../lib/gcc/arm-atollic-eabi/6.3.1/armv7-m\libgcc.a(_arm_addsubsf3.o)
 .debug_frame   0x0000317c       0x38 c:/program files (x86)/atollic/truestudio for stm32 9.1.0/armtools/bin/../lib/gcc/arm-atollic-eabi/6.3.1/armv7-m\libgcc.a(_arm_muldivsf3.o)
 .debug_frame   0x000031b4       0xc8 c:/program files (x86)/atollic/truestudio for stm32 9.1.0/armtools/bin/../lib/gcc/arm-atollic-eabi/6.3.1/armv7-m\libgcc.a(_arm_cmpsf2.o)
 .debug_frame   0x0000327c       0x24 c:/program files (x86)/atollic/truestudio for stm32 9.1.0/armtools/bin/../lib/gcc/arm-atollic-eabi/6.3.1/armv7-m\libgcc.a(_arm_unordsf2.o)
 .debug_frame   0x000032a0       0x24 c:/program files (x86)/atollic/truestudio for stm32 9.1.0/armtools/bin/../lib/gcc/arm-atollic-eabi/6.3.1/armv7-m\libgcc.a(_arm_fixsfsi.o)
 .debug_frame   0x000032c4       0x24 c:/program files (x86)/atollic/truestudio for stm32 9.1.0/armtools/bin/../lib/gcc/arm-atollic-eabi/6.3.1/armv7-m\libgcc.a(_arm_fixunssfsi.o)

Cross Reference Table

Symbol                                            File
ADC1_2_IRQHandler                                 src\startup_stm32f10x_md.o
ADC_AnalogWatchdogCmd                             Libraries\STM32F10x_StdPeriph_Driver\src\stm32f10x_adc.o
ADC_AnalogWatchdogSingleChannelConfig             Libraries\STM32F10x_StdPeriph_Driver\src\stm32f10x_adc.o
ADC_AnalogWatchdogThresholdsConfig                Libraries\STM32F10x_StdPeriph_Driver\src\stm32f10x_adc.o
ADC_AutoInjectedConvCmd                           Libraries\STM32F10x_StdPeriph_Driver\src\stm32f10x_adc.o
ADC_ClearFlag                                     Libraries\STM32F10x_StdPeriph_Driver\src\stm32f10x_adc.o
ADC_ClearITPendingBit                             Libraries\STM32F10x_StdPeriph_Driver\src\stm32f10x_adc.o
ADC_Cmd                                           Libraries\STM32F10x_StdPeriph_Driver\src\stm32f10x_adc.o
ADC_DMACmd                                        Libraries\STM32F10x_StdPeriph_Driver\src\stm32f10x_adc.o
ADC_DeInit                                        Libraries\STM32F10x_StdPeriph_Driver\src\stm32f10x_adc.o
ADC_DiscModeChannelCountConfig                    Libraries\STM32F10x_StdPeriph_Driver\src\stm32f10x_adc.o
ADC_DiscModeCmd                                   Libraries\STM32F10x_StdPeriph_Driver\src\stm32f10x_adc.o
ADC_ExternalTrigConvCmd                           Libraries\STM32F10x_StdPeriph_Driver\src\stm32f10x_adc.o
ADC_ExternalTrigInjectedConvCmd                   Libraries\STM32F10x_StdPeriph_Driver\src\stm32f10x_adc.o
ADC_ExternalTrigInjectedConvConfig                Libraries\STM32F10x_StdPeriph_Driver\src\stm32f10x_adc.o
ADC_GetCalibrationStatus                          Libraries\STM32F10x_StdPeriph_Driver\src\stm32f10x_adc.o
ADC_GetConversionValue                            Libraries\STM32F10x_StdPeriph_Driver\src\stm32f10x_adc.o
ADC_GetDualModeConversionValue                    Libraries\STM32F10x_StdPeriph_Driver\src\stm32f10x_adc.o
ADC_GetFlagStatus                                 Libraries\STM32F10x_StdPeriph_Driver\src\stm32f10x_adc.o
ADC_GetITStatus                                   Libraries\STM32F10x_StdPeriph_Driver\src\stm32f10x_adc.o
ADC_GetInjectedConversionValue                    Libraries\STM32F10x_StdPeriph_Driver\src\stm32f10x_adc.o
ADC_GetResetCalibrationStatus                     Libraries\STM32F10x_StdPeriph_Driver\src\stm32f10x_adc.o
ADC_GetSoftwareStartConvStatus                    Libraries\STM32F10x_StdPeriph_Driver\src\stm32f10x_adc.o
ADC_GetSoftwareStartInjectedConvCmdStatus         Libraries\STM32F10x_StdPeriph_Driver\src\stm32f10x_adc.o
ADC_ITConfig                                      Libraries\STM32F10x_StdPeriph_Driver\src\stm32f10x_adc.o
ADC_Init                                          Libraries\STM32F10x_StdPeriph_Driver\src\stm32f10x_adc.o
ADC_InjectedChannelConfig                         Libraries\STM32F10x_StdPeriph_Driver\src\stm32f10x_adc.o
ADC_InjectedDiscModeCmd                           Libraries\STM32F10x_StdPeriph_Driver\src\stm32f10x_adc.o
ADC_InjectedSequencerLengthConfig                 Libraries\STM32F10x_StdPeriph_Driver\src\stm32f10x_adc.o
ADC_RegularChannelConfig                          Libraries\STM32F10x_StdPeriph_Driver\src\stm32f10x_adc.o
ADC_ResetCalibration                              Libraries\STM32F10x_StdPeriph_Driver\src\stm32f10x_adc.o
ADC_SetInjectedOffset                             Libraries\STM32F10x_StdPeriph_Driver\src\stm32f10x_adc.o
ADC_SoftwareStartConvCmd                          Libraries\STM32F10x_StdPeriph_Driver\src\stm32f10x_adc.o
ADC_SoftwareStartInjectedConvCmd                  Libraries\STM32F10x_StdPeriph_Driver\src\stm32f10x_adc.o
ADC_StartCalibration                              Libraries\STM32F10x_StdPeriph_Driver\src\stm32f10x_adc.o
ADC_StructInit                                    Libraries\STM32F10x_StdPeriph_Driver\src\stm32f10x_adc.o
ADC_TempSensorVrefintCmd                          Libraries\STM32F10x_StdPeriph_Driver\src\stm32f10x_adc.o
AHBPrescTable                                     src\system_stm32f10x.o
BKP_ClearFlag                                     Libraries\STM32F10x_StdPeriph_Driver\src\stm32f10x_bkp.o
BKP_ClearITPendingBit                             Libraries\STM32F10x_StdPeriph_Driver\src\stm32f10x_bkp.o
BKP_DeInit                                        Libraries\STM32F10x_StdPeriph_Driver\src\stm32f10x_bkp.o
BKP_GetFlagStatus                                 Libraries\STM32F10x_StdPeriph_Driver\src\stm32f10x_bkp.o
BKP_GetITStatus                                   Libraries\STM32F10x_StdPeriph_Driver\src\stm32f10x_bkp.o
BKP_ITConfig                                      Libraries\STM32F10x_StdPeriph_Driver\src\stm32f10x_bkp.o
BKP_RTCOutputConfig                               Libraries\STM32F10x_StdPeriph_Driver\src\stm32f10x_bkp.o
BKP_ReadBackupRegister                            Libraries\STM32F10x_StdPeriph_Driver\src\stm32f10x_bkp.o
BKP_SetRTCCalibrationValue                        Libraries\STM32F10x_StdPeriph_Driver\src\stm32f10x_bkp.o
BKP_TamperPinCmd                                  Libraries\STM32F10x_StdPeriph_Driver\src\stm32f10x_bkp.o
BKP_TamperPinLevelConfig                          Libraries\STM32F10x_StdPeriph_Driver\src\stm32f10x_bkp.o
BKP_WriteBackupRegister                           Libraries\STM32F10x_StdPeriph_Driver\src\stm32f10x_bkp.o
BusFault_Handler                                  util\stm32f10x_it.o
                                                  src\startup_stm32f10x_md.o
ByteSwap                                          stm_usb_fs_lib\src\usb_regs.o
                                                  stm_usb_fs_lib\src\usb_core.o
CAN1_RX1_IRQHandler                               src\startup_stm32f10x_md.o
CAN1_SCE_IRQHandler                               src\startup_stm32f10x_md.o
CAN_CancelTransmit                                Libraries\STM32F10x_StdPeriph_Driver\src\stm32f10x_can.o
CAN_ClearFlag                                     Libraries\STM32F10x_StdPeriph_Driver\src\stm32f10x_can.o
CAN_ClearITPendingBit                             Libraries\STM32F10x_StdPeriph_Driver\src\stm32f10x_can.o
CAN_DBGFreeze                                     Libraries\STM32F10x_StdPeriph_Driver\src\stm32f10x_can.o
CAN_DeInit                                        Libraries\STM32F10x_StdPeriph_Driver\src\stm32f10x_can.o
CAN_FIFORelease                                   Libraries\STM32F10x_StdPeriph_Driver\src\stm32f10x_can.o
CAN_FilterInit                                    Libraries\STM32F10x_StdPeriph_Driver\src\stm32f10x_can.o
CAN_GetFlagStatus                                 Libraries\STM32F10x_StdPeriph_Driver\src\stm32f10x_can.o
CAN_GetITStatus                                   Libraries\STM32F10x_StdPeriph_Driver\src\stm32f10x_can.o
CAN_GetLSBTransmitErrorCounter                    Libraries\STM32F10x_StdPeriph_Driver\src\stm32f10x_can.o
CAN_GetLastErrorCode                              Libraries\STM32F10x_StdPeriph_Driver\src\stm32f10x_can.o
CAN_GetReceiveErrorCounter                        Libraries\STM32F10x_StdPeriph_Driver\src\stm32f10x_can.o
CAN_ITConfig                                      Libraries\STM32F10x_StdPeriph_Driver\src\stm32f10x_can.o
CAN_Init                                          Libraries\STM32F10x_StdPeriph_Driver\src\stm32f10x_can.o
CAN_MessagePending                                Libraries\STM32F10x_StdPeriph_Driver\src\stm32f10x_can.o
CAN_OperatingModeRequest                          Libraries\STM32F10x_StdPeriph_Driver\src\stm32f10x_can.o
CAN_Receive                                       Libraries\STM32F10x_StdPeriph_Driver\src\stm32f10x_can.o
CAN_SlaveStartBank                                Libraries\STM32F10x_StdPeriph_Driver\src\stm32f10x_can.o
CAN_Sleep                                         Libraries\STM32F10x_StdPeriph_Driver\src\stm32f10x_can.o
CAN_StructInit                                    Libraries\STM32F10x_StdPeriph_Driver\src\stm32f10x_can.o
CAN_TTComModeCmd                                  Libraries\STM32F10x_StdPeriph_Driver\src\stm32f10x_can.o
CAN_Transmit                                      Libraries\STM32F10x_StdPeriph_Driver\src\stm32f10x_can.o
CAN_TransmitStatus                                Libraries\STM32F10x_StdPeriph_Driver\src\stm32f10x_can.o
CAN_WakeUp                                        Libraries\STM32F10x_StdPeriph_Driver\src\stm32f10x_can.o
CEC_ClearFlag                                     Libraries\STM32F10x_StdPeriph_Driver\src\stm32f10x_cec.o
CEC_ClearITPendingBit                             Libraries\STM32F10x_StdPeriph_Driver\src\stm32f10x_cec.o
CEC_Cmd                                           Libraries\STM32F10x_StdPeriph_Driver\src\stm32f10x_cec.o
CEC_DeInit                                        Libraries\STM32F10x_StdPeriph_Driver\src\stm32f10x_cec.o
CEC_EndOfMessageCmd                               Libraries\STM32F10x_StdPeriph_Driver\src\stm32f10x_cec.o
CEC_GetFlagStatus                                 Libraries\STM32F10x_StdPeriph_Driver\src\stm32f10x_cec.o
CEC_GetITStatus                                   Libraries\STM32F10x_StdPeriph_Driver\src\stm32f10x_cec.o
CEC_ITConfig                                      Libraries\STM32F10x_StdPeriph_Driver\src\stm32f10x_cec.o
CEC_Init                                          Libraries\STM32F10x_StdPeriph_Driver\src\stm32f10x_cec.o
CEC_OwnAddressConfig                              Libraries\STM32F10x_StdPeriph_Driver\src\stm32f10x_cec.o
CEC_ReceiveDataByte                               Libraries\STM32F10x_StdPeriph_Driver\src\stm32f10x_cec.o
CEC_SendDataByte                                  Libraries\STM32F10x_StdPeriph_Driver\src\stm32f10x_cec.o
CEC_SetPrescaler                                  Libraries\STM32F10x_StdPeriph_Driver\src\stm32f10x_cec.o
CEC_StartOfMessage                                Libraries\STM32F10x_StdPeriph_Driver\src\stm32f10x_cec.o
CRC_CalcBlockCRC                                  Libraries\STM32F10x_StdPeriph_Driver\src\stm32f10x_crc.o
CRC_CalcCRC                                       Libraries\STM32F10x_StdPeriph_Driver\src\stm32f10x_crc.o
CRC_GetCRC                                        Libraries\STM32F10x_StdPeriph_Driver\src\stm32f10x_crc.o
CRC_GetIDRegister                                 Libraries\STM32F10x_StdPeriph_Driver\src\stm32f10x_crc.o
CRC_ResetDR                                       Libraries\STM32F10x_StdPeriph_Driver\src\stm32f10x_crc.o
CRC_SetIDRegister                                 Libraries\STM32F10x_StdPeriph_Driver\src\stm32f10x_crc.o
CTR_HP                                            stm_usb_fs_lib\src\usb_int.o
CTR_LP                                            stm_usb_fs_lib\src\usb_int.o
                                                  usb\usb_istr.o
ClearDTOG_RX                                      stm_usb_fs_lib\src\usb_regs.o
                                                  stm_usb_fs_lib\src\usb_core.o
ClearDTOG_TX                                      stm_usb_fs_lib\src\usb_regs.o
                                                  stm_usb_fs_lib\src\usb_core.o
ClearEPDoubleBuff                                 stm_usb_fs_lib\src\usb_regs.o
ClearEP_CTR_RX                                    stm_usb_fs_lib\src\usb_regs.o
ClearEP_CTR_TX                                    stm_usb_fs_lib\src\usb_regs.o
ClearEP_KIND                                      stm_usb_fs_lib\src\usb_regs.o
Clear_Status_Out                                  stm_usb_fs_lib\src\usb_regs.o
                                                  usb\usb_prop.o
Config_Descriptor                                 usb\usb_prop.o
DAC_Cmd                                           Libraries\STM32F10x_StdPeriph_Driver\src\stm32f10x_dac.o
DAC_DMACmd                                        Libraries\STM32F10x_StdPeriph_Driver\src\stm32f10x_dac.o
DAC_DeInit                                        Libraries\STM32F10x_StdPeriph_Driver\src\stm32f10x_dac.o
DAC_DualSoftwareTriggerCmd                        Libraries\STM32F10x_StdPeriph_Driver\src\stm32f10x_dac.o
DAC_GetDataOutputValue                            Libraries\STM32F10x_StdPeriph_Driver\src\stm32f10x_dac.o
DAC_Init                                          Libraries\STM32F10x_StdPeriph_Driver\src\stm32f10x_dac.o
DAC_SetChannel1Data                               Libraries\STM32F10x_StdPeriph_Driver\src\stm32f10x_dac.o
DAC_SetChannel2Data                               Libraries\STM32F10x_StdPeriph_Driver\src\stm32f10x_dac.o
DAC_SetDualChannelData                            Libraries\STM32F10x_StdPeriph_Driver\src\stm32f10x_dac.o
DAC_SoftwareTriggerCmd                            Libraries\STM32F10x_StdPeriph_Driver\src\stm32f10x_dac.o
DAC_StructInit                                    Libraries\STM32F10x_StdPeriph_Driver\src\stm32f10x_dac.o
DAC_WaveGenerationCmd                             Libraries\STM32F10x_StdPeriph_Driver\src\stm32f10x_dac.o
DBGMCU_Config                                     Libraries\STM32F10x_StdPeriph_Driver\src\stm32f10x_dbgmcu.o
DBGMCU_GetDEVID                                   Libraries\STM32F10x_StdPeriph_Driver\src\stm32f10x_dbgmcu.o
DBGMCU_GetREVID                                   Libraries\STM32F10x_StdPeriph_Driver\src\stm32f10x_dbgmcu.o
DMA1_Channel1_IRQHandler                          src\startup_stm32f10x_md.o
DMA1_Channel2_IRQHandler                          src\startup_stm32f10x_md.o
DMA1_Channel3_IRQHandler                          src\startup_stm32f10x_md.o
DMA1_Channel4_IRQHandler                          src\startup_stm32f10x_md.o
DMA1_Channel5_IRQHandler                          src\startup_stm32f10x_md.o
DMA1_Channel6_IRQHandler                          src\startup_stm32f10x_md.o
DMA1_Channel7_IRQHandler                          src\startup_stm32f10x_md.o
DMA_ClearFlag                                     Libraries\STM32F10x_StdPeriph_Driver\src\stm32f10x_dma.o
DMA_ClearITPendingBit                             Libraries\STM32F10x_StdPeriph_Driver\src\stm32f10x_dma.o
DMA_Cmd                                           Libraries\STM32F10x_StdPeriph_Driver\src\stm32f10x_dma.o
DMA_DeInit                                        Libraries\STM32F10x_StdPeriph_Driver\src\stm32f10x_dma.o
DMA_GetCurrDataCounter                            Libraries\STM32F10x_StdPeriph_Driver\src\stm32f10x_dma.o
DMA_GetFlagStatus                                 Libraries\STM32F10x_StdPeriph_Driver\src\stm32f10x_dma.o
DMA_GetITStatus                                   Libraries\STM32F10x_StdPeriph_Driver\src\stm32f10x_dma.o
DMA_ITConfig                                      Libraries\STM32F10x_StdPeriph_Driver\src\stm32f10x_dma.o
DMA_Init                                          Libraries\STM32F10x_StdPeriph_Driver\src\stm32f10x_dma.o
DMA_SetCurrDataCounter                            Libraries\STM32F10x_StdPeriph_Driver\src\stm32f10x_dma.o
DMA_StructInit                                    Libraries\STM32F10x_StdPeriph_Driver\src\stm32f10x_dma.o
Data_Mul_MaxPacketSize                            stm_usb_fs_lib\src\usb_core.o
DebugMon_Handler                                  util\stm32f10x_it.o
                                                  src\startup_stm32f10x_md.o
Default_Handler                                   src\startup_stm32f10x_md.o
Device_Descriptor                                 usb\usb_prop.o
Device_Info                                       stm_usb_fs_lib\src\usb_init.o
                                                  usb\usb_prop.o
                                                  usb\hw_config.o
Device_Property                                   usb\usb_prop.o
                                                  usb\usb_istr.o
                                                  stm_usb_fs_lib\src\usb_init.o
                                                  stm_usb_fs_lib\src\usb_core.o
Device_Table                                      usb\usb_prop.o
                                                  stm_usb_fs_lib\src\usb_core.o
EE_Buffer                                         src\eeprom.o
EP1_IN_Callback                                   usb\usb_endp.o
                                                  usb\usb_istr.o
EP3_OUT_Callback                                  usb\usb_endp.o
                                                  usb\usb_istr.o
EPindex                                           stm_usb_fs_lib\src\usb_init.o
                                                  stm_usb_fs_lib\src\usb_int.o
EVAL_COM1_IRQHandler                              util\stm32f10x_it.o
EXTI0_IRQHandler                                  src\startup_stm32f10x_md.o
EXTI15_10_IRQHandler                              src\limits.o
EXTI1_IRQHandler                                  src\startup_stm32f10x_md.o
EXTI2_IRQHandler                                  src\startup_stm32f10x_md.o
EXTI3_IRQHandler                                  src\startup_stm32f10x_md.o
EXTI4_IRQHandler                                  src\startup_stm32f10x_md.o
EXTI9_5_IRQHandler                                src\system.o
                                                  src\startup_stm32f10x_md.o
EXTI_ClearFlag                                    Libraries\STM32F10x_StdPeriph_Driver\src\stm32f10x_exti.o
EXTI_ClearITPendingBit                            Libraries\STM32F10x_StdPeriph_Driver\src\stm32f10x_exti.o
                                                  src\system.o
                                                  src\motion_control.o
                                                  src\limits.o
EXTI_DeInit                                       Libraries\STM32F10x_StdPeriph_Driver\src\stm32f10x_exti.o
EXTI_GenerateSWInterrupt                          Libraries\STM32F10x_StdPeriph_Driver\src\stm32f10x_exti.o
EXTI_GetFlagStatus                                Libraries\STM32F10x_StdPeriph_Driver\src\stm32f10x_exti.o
EXTI_GetITStatus                                  Libraries\STM32F10x_StdPeriph_Driver\src\stm32f10x_exti.o
                                                  src\limits.o
EXTI_Init                                         Libraries\STM32F10x_StdPeriph_Driver\src\stm32f10x_exti.o
                                                  src\system.o
                                                  src\limits.o
EXTI_StructInit                                   Libraries\STM32F10x_StdPeriph_Driver\src\stm32f10x_exti.o
Enter_LowPowerMode                                usb\hw_config.o
                                                  usb\usb_pwr.o
FLASH_ClearFlag                                   Libraries\STM32F10x_StdPeriph_Driver\src\stm32f10x_flash.o
FLASH_EnableWriteProtection                       Libraries\STM32F10x_StdPeriph_Driver\src\stm32f10x_flash.o
FLASH_EraseAllBank1Pages                          Libraries\STM32F10x_StdPeriph_Driver\src\stm32f10x_flash.o
FLASH_EraseAllPages                               Libraries\STM32F10x_StdPeriph_Driver\src\stm32f10x_flash.o
FLASH_EraseOptionBytes                            Libraries\STM32F10x_StdPeriph_Driver\src\stm32f10x_flash.o
FLASH_ErasePage                                   Libraries\STM32F10x_StdPeriph_Driver\src\stm32f10x_flash.o
                                                  src\eeprom.o
FLASH_GetBank1Status                              Libraries\STM32F10x_StdPeriph_Driver\src\stm32f10x_flash.o
FLASH_GetFlagStatus                               Libraries\STM32F10x_StdPeriph_Driver\src\stm32f10x_flash.o
FLASH_GetPrefetchBufferStatus                     Libraries\STM32F10x_StdPeriph_Driver\src\stm32f10x_flash.o
FLASH_GetReadOutProtectionStatus                  Libraries\STM32F10x_StdPeriph_Driver\src\stm32f10x_flash.o
FLASH_GetStatus                                   Libraries\STM32F10x_StdPeriph_Driver\src\stm32f10x_flash.o
FLASH_GetUserOptionByte                           Libraries\STM32F10x_StdPeriph_Driver\src\stm32f10x_flash.o
FLASH_GetWriteProtectionOptionByte                Libraries\STM32F10x_StdPeriph_Driver\src\stm32f10x_flash.o
FLASH_HalfCycleAccessCmd                          Libraries\STM32F10x_StdPeriph_Driver\src\stm32f10x_flash.o
FLASH_IRQHandler                                  src\startup_stm32f10x_md.o
FLASH_ITConfig                                    Libraries\STM32F10x_StdPeriph_Driver\src\stm32f10x_flash.o
FLASH_Lock                                        Libraries\STM32F10x_StdPeriph_Driver\src\stm32f10x_flash.o
FLASH_LockBank1                                   Libraries\STM32F10x_StdPeriph_Driver\src\stm32f10x_flash.o
FLASH_PrefetchBufferCmd                           Libraries\STM32F10x_StdPeriph_Driver\src\stm32f10x_flash.o
FLASH_ProgramHalfWord                             Libraries\STM32F10x_StdPeriph_Driver\src\stm32f10x_flash.o
                                                  src\eeprom.o
FLASH_ProgramOptionByteData                       Libraries\STM32F10x_StdPeriph_Driver\src\stm32f10x_flash.o
FLASH_ProgramWord                                 Libraries\STM32F10x_StdPeriph_Driver\src\stm32f10x_flash.o
FLASH_ReadOutProtection                           Libraries\STM32F10x_StdPeriph_Driver\src\stm32f10x_flash.o
FLASH_SetLatency                                  Libraries\STM32F10x_StdPeriph_Driver\src\stm32f10x_flash.o
FLASH_Unlock                                      Libraries\STM32F10x_StdPeriph_Driver\src\stm32f10x_flash.o
                                                  src\main.o
FLASH_UnlockBank1                                 Libraries\STM32F10x_StdPeriph_Driver\src\stm32f10x_flash.o
FLASH_UserOptionByteConfig                        Libraries\STM32F10x_StdPeriph_Driver\src\stm32f10x_flash.o
FLASH_WaitForLastBank1Operation                   Libraries\STM32F10x_StdPeriph_Driver\src\stm32f10x_flash.o
FLASH_WaitForLastOperation                        Libraries\STM32F10x_StdPeriph_Driver\src\stm32f10x_flash.o
FSMC_ClearFlag                                    Libraries\STM32F10x_StdPeriph_Driver\src\stm32f10x_fsmc.o
FSMC_ClearITPendingBit                            Libraries\STM32F10x_StdPeriph_Driver\src\stm32f10x_fsmc.o
FSMC_GetECC                                       Libraries\STM32F10x_StdPeriph_Driver\src\stm32f10x_fsmc.o
FSMC_GetFlagStatus                                Libraries\STM32F10x_StdPeriph_Driver\src\stm32f10x_fsmc.o
FSMC_GetITStatus                                  Libraries\STM32F10x_StdPeriph_Driver\src\stm32f10x_fsmc.o
FSMC_ITConfig                                     Libraries\STM32F10x_StdPeriph_Driver\src\stm32f10x_fsmc.o
FSMC_NANDCmd                                      Libraries\STM32F10x_StdPeriph_Driver\src\stm32f10x_fsmc.o
FSMC_NANDDeInit                                   Libraries\STM32F10x_StdPeriph_Driver\src\stm32f10x_fsmc.o
FSMC_NANDECCCmd                                   Libraries\STM32F10x_StdPeriph_Driver\src\stm32f10x_fsmc.o
FSMC_NANDInit                                     Libraries\STM32F10x_StdPeriph_Driver\src\stm32f10x_fsmc.o
FSMC_NANDStructInit                               Libraries\STM32F10x_StdPeriph_Driver\src\stm32f10x_fsmc.o
FSMC_NORSRAMCmd                                   Libraries\STM32F10x_StdPeriph_Driver\src\stm32f10x_fsmc.o
FSMC_NORSRAMDeInit                                Libraries\STM32F10x_StdPeriph_Driver\src\stm32f10x_fsmc.o
FSMC_NORSRAMInit                                  Libraries\STM32F10x_StdPeriph_Driver\src\stm32f10x_fsmc.o
FSMC_NORSRAMStructInit                            Libraries\STM32F10x_StdPeriph_Driver\src\stm32f10x_fsmc.o
FSMC_PCCARDCmd                                    Libraries\STM32F10x_StdPeriph_Driver\src\stm32f10x_fsmc.o
FSMC_PCCARDDeInit                                 Libraries\STM32F10x_StdPeriph_Driver\src\stm32f10x_fsmc.o
FSMC_PCCARDInit                                   Libraries\STM32F10x_StdPeriph_Driver\src\stm32f10x_fsmc.o
FSMC_PCCARDStructInit                             Libraries\STM32F10x_StdPeriph_Driver\src\stm32f10x_fsmc.o
FreeUserBuffer                                    stm_usb_fs_lib\src\usb_regs.o
GPIO_AFIODeInit                                   Libraries\STM32F10x_StdPeriph_Driver\src\stm32f10x_gpio.o
GPIO_DeInit                                       Libraries\STM32F10x_StdPeriph_Driver\src\stm32f10x_gpio.o
GPIO_ETH_MediaInterfaceConfig                     Libraries\STM32F10x_StdPeriph_Driver\src\stm32f10x_gpio.o
GPIO_EXTILineConfig                               Libraries\STM32F10x_StdPeriph_Driver\src\stm32f10x_gpio.o
                                                  src\system.o
                                                  src\limits.o
GPIO_EventOutputCmd                               Libraries\STM32F10x_StdPeriph_Driver\src\stm32f10x_gpio.o
GPIO_EventOutputConfig                            Libraries\STM32F10x_StdPeriph_Driver\src\stm32f10x_gpio.o
GPIO_Init                                         Libraries\STM32F10x_StdPeriph_Driver\src\stm32f10x_gpio.o
                                                  src\system.o
                                                  src\stepper.o
                                                  src\spindle_control.o
                                                  src\probe.o
                                                  src\main.o
                                                  src\limits.o
                                                  src\coolant_control.o
GPIO_PinLockConfig                                Libraries\STM32F10x_StdPeriph_Driver\src\stm32f10x_gpio.o
GPIO_PinRemapConfig                               Libraries\STM32F10x_StdPeriph_Driver\src\stm32f10x_gpio.o
                                                  src\system.o
GPIO_ReadInputData                                Libraries\STM32F10x_StdPeriph_Driver\src\stm32f10x_gpio.o
                                                  src\system.o
                                                  src\spindle_control.o
                                                  src\probe.o
                                                  src\limits.o
GPIO_ReadInputDataBit                             Libraries\STM32F10x_StdPeriph_Driver\src\stm32f10x_gpio.o
GPIO_ReadOutputData                               Libraries\STM32F10x_StdPeriph_Driver\src\stm32f10x_gpio.o
                                                  src\coolant_control.o
GPIO_ReadOutputDataBit                            Libraries\STM32F10x_StdPeriph_Driver\src\stm32f10x_gpio.o
GPIO_ResetBits                                    Libraries\STM32F10x_StdPeriph_Driver\src\stm32f10x_gpio.o
                                                  src\stepper.o
                                                  src\coolant_control.o
GPIO_SetBits                                      Libraries\STM32F10x_StdPeriph_Driver\src\stm32f10x_gpio.o
                                                  src\stepper.o
                                                  src\coolant_control.o
GPIO_StructInit                                   Libraries\STM32F10x_StdPeriph_Driver\src\stm32f10x_gpio.o
GPIO_Write                                        Libraries\STM32F10x_StdPeriph_Driver\src\stm32f10x_gpio.o
GPIO_WriteBit                                     Libraries\STM32F10x_StdPeriph_Driver\src\stm32f10x_gpio.o
                                                  src\spindle_control.o
                                                  src\main.o
GetBTABLE                                         stm_usb_fs_lib\src\usb_regs.o
GetCNTR                                           stm_usb_fs_lib\src\usb_regs.o
GetDADDR                                          stm_usb_fs_lib\src\usb_regs.o
GetENDPOINT                                       stm_usb_fs_lib\src\usb_regs.o
GetEPAddress                                      stm_usb_fs_lib\src\usb_regs.o
GetEPDblBuf0Addr                                  stm_usb_fs_lib\src\usb_regs.o
GetEPDblBuf0Count                                 stm_usb_fs_lib\src\usb_regs.o
GetEPDblBuf1Addr                                  stm_usb_fs_lib\src\usb_regs.o
GetEPDblBuf1Count                                 stm_usb_fs_lib\src\usb_regs.o
GetEPDblBufDir                                    stm_usb_fs_lib\src\usb_regs.o
GetEPRxAddr                                       stm_usb_fs_lib\src\usb_regs.o
                                                  stm_usb_fs_lib\src\usb_sil.o
                                                  stm_usb_fs_lib\src\usb_core.o
GetEPRxCount                                      stm_usb_fs_lib\src\usb_regs.o
                                                  stm_usb_fs_lib\src\usb_sil.o
GetEPRxStatus                                     stm_usb_fs_lib\src\usb_regs.o
GetEPTxAddr                                       stm_usb_fs_lib\src\usb_regs.o
                                                  stm_usb_fs_lib\src\usb_sil.o
                                                  stm_usb_fs_lib\src\usb_core.o
GetEPTxCount                                      stm_usb_fs_lib\src\usb_regs.o
GetEPTxStatus                                     stm_usb_fs_lib\src\usb_regs.o
GetEPType                                         stm_usb_fs_lib\src\usb_regs.o
GetFNR                                            stm_usb_fs_lib\src\usb_regs.o
GetISTR                                           stm_usb_fs_lib\src\usb_regs.o
GetRxStallStatus                                  stm_usb_fs_lib\src\usb_regs.o
GetTxStallStatus                                  stm_usb_fs_lib\src\usb_regs.o
Get_SerialNum                                     usb\hw_config.o
                                                  usb\usb_prop.o
HSEStartUpStatus                                  usb\hw_config.o
HardFault_Handler                                 util\stm32f10x_it.o
                                                  src\startup_stm32f10x_md.o
I2C1_ER_IRQHandler                                src\startup_stm32f10x_md.o
I2C1_EV_IRQHandler                                src\startup_stm32f10x_md.o
I2C2_ER_IRQHandler                                src\startup_stm32f10x_md.o
I2C2_EV_IRQHandler                                src\startup_stm32f10x_md.o
I2C_ARPCmd                                        Libraries\STM32F10x_StdPeriph_Driver\src\stm32f10x_i2c.o
I2C_AcknowledgeConfig                             Libraries\STM32F10x_StdPeriph_Driver\src\stm32f10x_i2c.o
I2C_CalculatePEC                                  Libraries\STM32F10x_StdPeriph_Driver\src\stm32f10x_i2c.o
I2C_CheckEvent                                    Libraries\STM32F10x_StdPeriph_Driver\src\stm32f10x_i2c.o
I2C_ClearFlag                                     Libraries\STM32F10x_StdPeriph_Driver\src\stm32f10x_i2c.o
I2C_ClearITPendingBit                             Libraries\STM32F10x_StdPeriph_Driver\src\stm32f10x_i2c.o
I2C_Cmd                                           Libraries\STM32F10x_StdPeriph_Driver\src\stm32f10x_i2c.o
I2C_DMACmd                                        Libraries\STM32F10x_StdPeriph_Driver\src\stm32f10x_i2c.o
I2C_DMALastTransferCmd                            Libraries\STM32F10x_StdPeriph_Driver\src\stm32f10x_i2c.o
I2C_DeInit                                        Libraries\STM32F10x_StdPeriph_Driver\src\stm32f10x_i2c.o
I2C_DualAddressCmd                                Libraries\STM32F10x_StdPeriph_Driver\src\stm32f10x_i2c.o
I2C_FastModeDutyCycleConfig                       Libraries\STM32F10x_StdPeriph_Driver\src\stm32f10x_i2c.o
I2C_GeneralCallCmd                                Libraries\STM32F10x_StdPeriph_Driver\src\stm32f10x_i2c.o
I2C_GenerateSTART                                 Libraries\STM32F10x_StdPeriph_Driver\src\stm32f10x_i2c.o
I2C_GenerateSTOP                                  Libraries\STM32F10x_StdPeriph_Driver\src\stm32f10x_i2c.o
I2C_GetFlagStatus                                 Libraries\STM32F10x_StdPeriph_Driver\src\stm32f10x_i2c.o
I2C_GetITStatus                                   Libraries\STM32F10x_StdPeriph_Driver\src\stm32f10x_i2c.o
I2C_GetLastEvent                                  Libraries\STM32F10x_StdPeriph_Driver\src\stm32f10x_i2c.o
I2C_GetPEC                                        Libraries\STM32F10x_StdPeriph_Driver\src\stm32f10x_i2c.o
I2C_ITConfig                                      Libraries\STM32F10x_StdPeriph_Driver\src\stm32f10x_i2c.o
I2C_Init                                          Libraries\STM32F10x_StdPeriph_Driver\src\stm32f10x_i2c.o
I2C_NACKPositionConfig                            Libraries\STM32F10x_StdPeriph_Driver\src\stm32f10x_i2c.o
I2C_OwnAddress2Config                             Libraries\STM32F10x_StdPeriph_Driver\src\stm32f10x_i2c.o
I2C_PECPositionConfig                             Libraries\STM32F10x_StdPeriph_Driver\src\stm32f10x_i2c.o
I2C_ReadRegister                                  Libraries\STM32F10x_StdPeriph_Driver\src\stm32f10x_i2c.o
I2C_ReceiveData                                   Libraries\STM32F10x_StdPeriph_Driver\src\stm32f10x_i2c.o
I2C_SMBusAlertConfig                              Libraries\STM32F10x_StdPeriph_Driver\src\stm32f10x_i2c.o
I2C_Send7bitAddress                               Libraries\STM32F10x_StdPeriph_Driver\src\stm32f10x_i2c.o
I2C_SendData                                      Libraries\STM32F10x_StdPeriph_Driver\src\stm32f10x_i2c.o
I2C_SoftwareResetCmd                              Libraries\STM32F10x_StdPeriph_Driver\src\stm32f10x_i2c.o
I2C_StretchClockCmd                               Libraries\STM32F10x_StdPeriph_Driver\src\stm32f10x_i2c.o
I2C_StructInit                                    Libraries\STM32F10x_StdPeriph_Driver\src\stm32f10x_i2c.o
I2C_TransmitPEC                                   Libraries\STM32F10x_StdPeriph_Driver\src\stm32f10x_i2c.o
I2S_Cmd                                           Libraries\STM32F10x_StdPeriph_Driver\src\stm32f10x_spi.o
I2S_Init                                          Libraries\STM32F10x_StdPeriph_Driver\src\stm32f10x_spi.o
I2S_StructInit                                    Libraries\STM32F10x_StdPeriph_Driver\src\stm32f10x_spi.o
IWDG_Enable                                       Libraries\STM32F10x_StdPeriph_Driver\src\stm32f10x_iwdg.o
IWDG_GetFlagStatus                                Libraries\STM32F10x_StdPeriph_Driver\src\stm32f10x_iwdg.o
IWDG_ReloadCounter                                Libraries\STM32F10x_StdPeriph_Driver\src\stm32f10x_iwdg.o
IWDG_SetPrescaler                                 Libraries\STM32F10x_StdPeriph_Driver\src\stm32f10x_iwdg.o
IWDG_SetReload                                    Libraries\STM32F10x_StdPeriph_Driver\src\stm32f10x_iwdg.o
IWDG_WriteAccessCmd                               Libraries\STM32F10x_StdPeriph_Driver\src\stm32f10x_iwdg.o
In0_Process                                       stm_usb_fs_lib\src\usb_core.o
                                                  stm_usb_fs_lib\src\usb_int.o
Leave_LowPowerMode                                usb\hw_config.o
                                                  usb\usb_pwr.o
LedBlink                                          src\main.o
                                                  src\protocol.o
MemManage_Handler                                 util\stm32f10x_it.o
                                                  src\startup_stm32f10x_md.o
NMI_Handler                                       util\stm32f10x_it.o
                                                  src\startup_stm32f10x_md.o
NOP_Process                                       stm_usb_fs_lib\src\usb_core.o
                                                  usb\usb_prop.o
                                                  usb\usb_istr.o
NVIC_Init                                         Libraries\STM32F10x_StdPeriph_Driver\src\misc.o
                                                  usb\hw_config.o
                                                  src\system.o
                                                  src\stepper.o
                                                  src\limits.o
NVIC_PriorityGroupConfig                          Libraries\STM32F10x_StdPeriph_Driver\src\misc.o
                                                  usb\hw_config.o
                                                  src\stepper.o
NVIC_SetVectorTable                               Libraries\STM32F10x_StdPeriph_Driver\src\misc.o
NVIC_SystemLPConfig                               Libraries\STM32F10x_StdPeriph_Driver\src\misc.o
OnUsbDataRx                                       src\serial.o
                                                  usb\usb_endp.o
Out0_Process                                      stm_usb_fs_lib\src\usb_core.o
                                                  stm_usb_fs_lib\src\usb_int.o
PMAToUserBufferCopy                               stm_usb_fs_lib\src\usb_mem.o
                                                  stm_usb_fs_lib\src\usb_sil.o
                                                  stm_usb_fs_lib\src\usb_core.o
PVD_IRQHandler                                    src\startup_stm32f10x_md.o
PWR_BackupAccessCmd                               Libraries\STM32F10x_StdPeriph_Driver\src\stm32f10x_pwr.o
PWR_ClearFlag                                     Libraries\STM32F10x_StdPeriph_Driver\src\stm32f10x_pwr.o
PWR_DeInit                                        Libraries\STM32F10x_StdPeriph_Driver\src\stm32f10x_pwr.o
PWR_EnterSTANDBYMode                              Libraries\STM32F10x_StdPeriph_Driver\src\stm32f10x_pwr.o
PWR_EnterSTOPMode                                 Libraries\STM32F10x_StdPeriph_Driver\src\stm32f10x_pwr.o
PWR_GetFlagStatus                                 Libraries\STM32F10x_StdPeriph_Driver\src\stm32f10x_pwr.o
PWR_PVDCmd                                        Libraries\STM32F10x_StdPeriph_Driver\src\stm32f10x_pwr.o
PWR_PVDLevelConfig                                Libraries\STM32F10x_StdPeriph_Driver\src\stm32f10x_pwr.o
PWR_WakeUpPinCmd                                  Libraries\STM32F10x_StdPeriph_Driver\src\stm32f10x_pwr.o
PendSV_Handler                                    util\stm32f10x_it.o
                                                  src\startup_stm32f10x_md.o
Post0_Process                                     stm_usb_fs_lib\src\usb_core.o
PowerOff                                          usb\usb_pwr.o
PowerOn                                           usb\usb_pwr.o
                                                  usb\usb_prop.o
RCC_ADCCLKConfig                                  Libraries\STM32F10x_StdPeriph_Driver\src\stm32f10x_rcc.o
RCC_AHBPeriphClockCmd                             Libraries\STM32F10x_StdPeriph_Driver\src\stm32f10x_rcc.o
RCC_APB1PeriphClockCmd                            Libraries\STM32F10x_StdPeriph_Driver\src\stm32f10x_rcc.o
                                                  usb\hw_config.o
RCC_APB1PeriphResetCmd                            Libraries\STM32F10x_StdPeriph_Driver\src\stm32f10x_rcc.o
                                                  Libraries\STM32F10x_StdPeriph_Driver\src\stm32f10x_wwdg.o
                                                  Libraries\STM32F10x_StdPeriph_Driver\src\stm32f10x_usart.o
                                                  Libraries\STM32F10x_StdPeriph_Driver\src\stm32f10x_tim.o
                                                  Libraries\STM32F10x_StdPeriph_Driver\src\stm32f10x_spi.o
                                                  Libraries\STM32F10x_StdPeriph_Driver\src\stm32f10x_pwr.o
                                                  Libraries\STM32F10x_StdPeriph_Driver\src\stm32f10x_i2c.o
                                                  Libraries\STM32F10x_StdPeriph_Driver\src\stm32f10x_dac.o
                                                  Libraries\STM32F10x_StdPeriph_Driver\src\stm32f10x_cec.o
                                                  Libraries\STM32F10x_StdPeriph_Driver\src\stm32f10x_can.o
RCC_APB2PeriphClockCmd                            Libraries\STM32F10x_StdPeriph_Driver\src\stm32f10x_rcc.o
                                                  src\system.o
                                                  src\stepper.o
                                                  src\spindle_control.o
                                                  src\probe.o
                                                  src\main.o
                                                  src\limits.o
                                                  src\coolant_control.o
RCC_APB2PeriphResetCmd                            Libraries\STM32F10x_StdPeriph_Driver\src\stm32f10x_rcc.o
                                                  Libraries\STM32F10x_StdPeriph_Driver\src\stm32f10x_usart.o
                                                  Libraries\STM32F10x_StdPeriph_Driver\src\stm32f10x_tim.o
                                                  Libraries\STM32F10x_StdPeriph_Driver\src\stm32f10x_spi.o
                                                  Libraries\STM32F10x_StdPeriph_Driver\src\stm32f10x_gpio.o
                                                  Libraries\STM32F10x_StdPeriph_Driver\src\stm32f10x_adc.o
RCC_AdjustHSICalibrationValue                     Libraries\STM32F10x_StdPeriph_Driver\src\stm32f10x_rcc.o
RCC_BackupResetCmd                                Libraries\STM32F10x_StdPeriph_Driver\src\stm32f10x_rcc.o
                                                  Libraries\STM32F10x_StdPeriph_Driver\src\stm32f10x_bkp.o
RCC_ClearFlag                                     Libraries\STM32F10x_StdPeriph_Driver\src\stm32f10x_rcc.o
RCC_ClearITPendingBit                             Libraries\STM32F10x_StdPeriph_Driver\src\stm32f10x_rcc.o
RCC_ClockSecuritySystemCmd                        Libraries\STM32F10x_StdPeriph_Driver\src\stm32f10x_rcc.o
RCC_DeInit                                        Libraries\STM32F10x_StdPeriph_Driver\src\stm32f10x_rcc.o
RCC_GetClocksFreq                                 Libraries\STM32F10x_StdPeriph_Driver\src\stm32f10x_rcc.o
                                                  Libraries\STM32F10x_StdPeriph_Driver\src\stm32f10x_usart.o
                                                  Libraries\STM32F10x_StdPeriph_Driver\src\stm32f10x_spi.o
                                                  Libraries\STM32F10x_StdPeriph_Driver\src\stm32f10x_i2c.o
RCC_GetFlagStatus                                 Libraries\STM32F10x_StdPeriph_Driver\src\stm32f10x_rcc.o
RCC_GetITStatus                                   Libraries\STM32F10x_StdPeriph_Driver\src\stm32f10x_rcc.o
RCC_GetSYSCLKSource                               Libraries\STM32F10x_StdPeriph_Driver\src\stm32f10x_rcc.o
RCC_HCLKConfig                                    Libraries\STM32F10x_StdPeriph_Driver\src\stm32f10x_rcc.o
RCC_HSEConfig                                     Libraries\STM32F10x_StdPeriph_Driver\src\stm32f10x_rcc.o
RCC_HSICmd                                        Libraries\STM32F10x_StdPeriph_Driver\src\stm32f10x_rcc.o
RCC_IRQHandler                                    src\startup_stm32f10x_md.o
RCC_ITConfig                                      Libraries\STM32F10x_StdPeriph_Driver\src\stm32f10x_rcc.o
RCC_LSEConfig                                     Libraries\STM32F10x_StdPeriph_Driver\src\stm32f10x_rcc.o
RCC_LSICmd                                        Libraries\STM32F10x_StdPeriph_Driver\src\stm32f10x_rcc.o
RCC_MCOConfig                                     Libraries\STM32F10x_StdPeriph_Driver\src\stm32f10x_rcc.o
RCC_PCLK1Config                                   Libraries\STM32F10x_StdPeriph_Driver\src\stm32f10x_rcc.o
RCC_PCLK2Config                                   Libraries\STM32F10x_StdPeriph_Driver\src\stm32f10x_rcc.o
RCC_PLLCmd                                        Libraries\STM32F10x_StdPeriph_Driver\src\stm32f10x_rcc.o
RCC_PLLConfig                                     Libraries\STM32F10x_StdPeriph_Driver\src\stm32f10x_rcc.o
RCC_RTCCLKCmd                                     Libraries\STM32F10x_StdPeriph_Driver\src\stm32f10x_rcc.o
RCC_RTCCLKConfig                                  Libraries\STM32F10x_StdPeriph_Driver\src\stm32f10x_rcc.o
RCC_SYSCLKConfig                                  Libraries\STM32F10x_StdPeriph_Driver\src\stm32f10x_rcc.o
RCC_USBCLKConfig                                  Libraries\STM32F10x_StdPeriph_Driver\src\stm32f10x_rcc.o
                                                  usb\hw_config.o
RCC_WaitForHSEStartUp                             Libraries\STM32F10x_StdPeriph_Driver\src\stm32f10x_rcc.o
RTCAlarm_IRQHandler                               src\startup_stm32f10x_md.o
RTC_ClearFlag                                     Libraries\STM32F10x_StdPeriph_Driver\src\stm32f10x_rtc.o
RTC_ClearITPendingBit                             Libraries\STM32F10x_StdPeriph_Driver\src\stm32f10x_rtc.o
RTC_EnterConfigMode                               Libraries\STM32F10x_StdPeriph_Driver\src\stm32f10x_rtc.o
RTC_ExitConfigMode                                Libraries\STM32F10x_StdPeriph_Driver\src\stm32f10x_rtc.o
RTC_GetCounter                                    Libraries\STM32F10x_StdPeriph_Driver\src\stm32f10x_rtc.o
RTC_GetDivider                                    Libraries\STM32F10x_StdPeriph_Driver\src\stm32f10x_rtc.o
RTC_GetFlagStatus                                 Libraries\STM32F10x_StdPeriph_Driver\src\stm32f10x_rtc.o
RTC_GetITStatus                                   Libraries\STM32F10x_StdPeriph_Driver\src\stm32f10x_rtc.o
RTC_IRQHandler                                    src\startup_stm32f10x_md.o
RTC_ITConfig                                      Libraries\STM32F10x_StdPeriph_Driver\src\stm32f10x_rtc.o
RTC_SetAlarm                                      Libraries\STM32F10x_StdPeriph_Driver\src\stm32f10x_rtc.o
RTC_SetCounter                                    Libraries\STM32F10x_StdPeriph_Driver\src\stm32f10x_rtc.o
RTC_SetPrescaler                                  Libraries\STM32F10x_StdPeriph_Driver\src\stm32f10x_rtc.o
RTC_WaitForLastTask                               Libraries\STM32F10x_StdPeriph_Driver\src\stm32f10x_rtc.o
RTC_WaitForSynchro                                Libraries\STM32F10x_StdPeriph_Driver\src\stm32f10x_rtc.o
Request                                           usb\usb_prop.o
Reset_Handler                                     src\startup_stm32f10x_md.o
Resume                                            usb\usb_pwr.o
ResumeS                                           usb\usb_pwr.o
Resume_Init                                       usb\usb_pwr.o
SDIO_CEATAITCmd                                   Libraries\STM32F10x_StdPeriph_Driver\src\stm32f10x_sdio.o
SDIO_ClearFlag                                    Libraries\STM32F10x_StdPeriph_Driver\src\stm32f10x_sdio.o
SDIO_ClearITPendingBit                            Libraries\STM32F10x_StdPeriph_Driver\src\stm32f10x_sdio.o
SDIO_ClockCmd                                     Libraries\STM32F10x_StdPeriph_Driver\src\stm32f10x_sdio.o
SDIO_CmdStructInit                                Libraries\STM32F10x_StdPeriph_Driver\src\stm32f10x_sdio.o
SDIO_CommandCompletionCmd                         Libraries\STM32F10x_StdPeriph_Driver\src\stm32f10x_sdio.o
SDIO_DMACmd                                       Libraries\STM32F10x_StdPeriph_Driver\src\stm32f10x_sdio.o
SDIO_DataConfig                                   Libraries\STM32F10x_StdPeriph_Driver\src\stm32f10x_sdio.o
SDIO_DataStructInit                               Libraries\STM32F10x_StdPeriph_Driver\src\stm32f10x_sdio.o
SDIO_DeInit                                       Libraries\STM32F10x_StdPeriph_Driver\src\stm32f10x_sdio.o
SDIO_GetCommandResponse                           Libraries\STM32F10x_StdPeriph_Driver\src\stm32f10x_sdio.o
SDIO_GetDataCounter                               Libraries\STM32F10x_StdPeriph_Driver\src\stm32f10x_sdio.o
SDIO_GetFIFOCount                                 Libraries\STM32F10x_StdPeriph_Driver\src\stm32f10x_sdio.o
SDIO_GetFlagStatus                                Libraries\STM32F10x_StdPeriph_Driver\src\stm32f10x_sdio.o
SDIO_GetITStatus                                  Libraries\STM32F10x_StdPeriph_Driver\src\stm32f10x_sdio.o
SDIO_GetPowerState                                Libraries\STM32F10x_StdPeriph_Driver\src\stm32f10x_sdio.o
SDIO_GetResponse                                  Libraries\STM32F10x_StdPeriph_Driver\src\stm32f10x_sdio.o
SDIO_ITConfig                                     Libraries\STM32F10x_StdPeriph_Driver\src\stm32f10x_sdio.o
SDIO_Init                                         Libraries\STM32F10x_StdPeriph_Driver\src\stm32f10x_sdio.o
SDIO_ReadData                                     Libraries\STM32F10x_StdPeriph_Driver\src\stm32f10x_sdio.o
SDIO_SendCEATACmd                                 Libraries\STM32F10x_StdPeriph_Driver\src\stm32f10x_sdio.o
SDIO_SendCommand                                  Libraries\STM32F10x_StdPeriph_Driver\src\stm32f10x_sdio.o
SDIO_SendSDIOSuspendCmd                           Libraries\STM32F10x_StdPeriph_Driver\src\stm32f10x_sdio.o
SDIO_SetPowerState                                Libraries\STM32F10x_StdPeriph_Driver\src\stm32f10x_sdio.o
SDIO_SetSDIOOperation                             Libraries\STM32F10x_StdPeriph_Driver\src\stm32f10x_sdio.o
SDIO_SetSDIOReadWaitMode                          Libraries\STM32F10x_StdPeriph_Driver\src\stm32f10x_sdio.o
SDIO_StartSDIOReadWait                            Libraries\STM32F10x_StdPeriph_Driver\src\stm32f10x_sdio.o
SDIO_StopSDIOReadWait                             Libraries\STM32F10x_StdPeriph_Driver\src\stm32f10x_sdio.o
SDIO_StructInit                                   Libraries\STM32F10x_StdPeriph_Driver\src\stm32f10x_sdio.o
SDIO_WriteData                                    Libraries\STM32F10x_StdPeriph_Driver\src\stm32f10x_sdio.o
SOF_Callback                                      usb\usb_endp.o
                                                  usb\usb_istr.o
SPI1_IRQHandler                                   src\startup_stm32f10x_md.o
SPI2_IRQHandler                                   src\startup_stm32f10x_md.o
SPI_BiDirectionalLineConfig                       Libraries\STM32F10x_StdPeriph_Driver\src\stm32f10x_spi.o
SPI_CalculateCRC                                  Libraries\STM32F10x_StdPeriph_Driver\src\stm32f10x_spi.o
SPI_Cmd                                           Libraries\STM32F10x_StdPeriph_Driver\src\stm32f10x_spi.o
SPI_DataSizeConfig                                Libraries\STM32F10x_StdPeriph_Driver\src\stm32f10x_spi.o
SPI_GetCRC                                        Libraries\STM32F10x_StdPeriph_Driver\src\stm32f10x_spi.o
SPI_GetCRCPolynomial                              Libraries\STM32F10x_StdPeriph_Driver\src\stm32f10x_spi.o
SPI_I2S_ClearFlag                                 Libraries\STM32F10x_StdPeriph_Driver\src\stm32f10x_spi.o
SPI_I2S_ClearITPendingBit                         Libraries\STM32F10x_StdPeriph_Driver\src\stm32f10x_spi.o
SPI_I2S_DMACmd                                    Libraries\STM32F10x_StdPeriph_Driver\src\stm32f10x_spi.o
SPI_I2S_DeInit                                    Libraries\STM32F10x_StdPeriph_Driver\src\stm32f10x_spi.o
SPI_I2S_GetFlagStatus                             Libraries\STM32F10x_StdPeriph_Driver\src\stm32f10x_spi.o
SPI_I2S_GetITStatus                               Libraries\STM32F10x_StdPeriph_Driver\src\stm32f10x_spi.o
SPI_I2S_ITConfig                                  Libraries\STM32F10x_StdPeriph_Driver\src\stm32f10x_spi.o
SPI_I2S_ReceiveData                               Libraries\STM32F10x_StdPeriph_Driver\src\stm32f10x_spi.o
SPI_I2S_SendData                                  Libraries\STM32F10x_StdPeriph_Driver\src\stm32f10x_spi.o
SPI_Init                                          Libraries\STM32F10x_StdPeriph_Driver\src\stm32f10x_spi.o
SPI_NSSInternalSoftwareConfig                     Libraries\STM32F10x_StdPeriph_Driver\src\stm32f10x_spi.o
SPI_SSOutputCmd                                   Libraries\STM32F10x_StdPeriph_Driver\src\stm32f10x_spi.o
SPI_StructInit                                    Libraries\STM32F10x_StdPeriph_Driver\src\stm32f10x_spi.o
SPI_TransmitCRC                                   Libraries\STM32F10x_StdPeriph_Driver\src\stm32f10x_spi.o
SVC_Handler                                       util\stm32f10x_it.o
                                                  src\startup_stm32f10x_md.o
SaveRState                                        stm_usb_fs_lib\src\usb_int.o
                                                  stm_usb_fs_lib\src\usb_core.o
SaveState                                         stm_usb_fs_lib\src\usb_init.o
SaveTState                                        stm_usb_fs_lib\src\usb_int.o
                                                  stm_usb_fs_lib\src\usb_core.o
SetBTABLE                                         stm_usb_fs_lib\src\usb_regs.o
                                                  usb\usb_prop.o
SetCNTR                                           stm_usb_fs_lib\src\usb_regs.o
SetDADDR                                          stm_usb_fs_lib\src\usb_regs.o
SetDeviceAddress                                  stm_usb_fs_lib\src\usb_core.o
                                                  usb\usb_prop.o
SetDouBleBuffEPStall                              stm_usb_fs_lib\src\usb_regs.o
SetENDPOINT                                       stm_usb_fs_lib\src\usb_regs.o
SetEPAddress                                      stm_usb_fs_lib\src\usb_regs.o
SetEPCountRxReg                                   stm_usb_fs_lib\src\usb_regs.o
SetEPDblBuf0Addr                                  stm_usb_fs_lib\src\usb_regs.o
SetEPDblBuf0Count                                 stm_usb_fs_lib\src\usb_regs.o
SetEPDblBuf1Addr                                  stm_usb_fs_lib\src\usb_regs.o
SetEPDblBuf1Count                                 stm_usb_fs_lib\src\usb_regs.o
SetEPDblBuffAddr                                  stm_usb_fs_lib\src\usb_regs.o
SetEPDblBuffCount                                 stm_usb_fs_lib\src\usb_regs.o
SetEPDoubleBuff                                   stm_usb_fs_lib\src\usb_regs.o
SetEPRxAddr                                       stm_usb_fs_lib\src\usb_regs.o
                                                  usb\usb_prop.o
SetEPRxCount                                      stm_usb_fs_lib\src\usb_regs.o
                                                  usb\usb_prop.o
                                                  stm_usb_fs_lib\src\usb_core.o
SetEPRxStatus                                     stm_usb_fs_lib\src\usb_regs.o
                                                  usb\usb_prop.o
SetEPRxValid                                      stm_usb_fs_lib\src\usb_regs.o
                                                  usb\usb_prop.o
                                                  usb\usb_endp.o
SetEPTxAddr                                       stm_usb_fs_lib\src\usb_regs.o
                                                  usb\usb_prop.o
SetEPTxCount                                      stm_usb_fs_lib\src\usb_regs.o
                                                  usb\usb_endp.o
                                                  stm_usb_fs_lib\src\usb_sil.o
                                                  stm_usb_fs_lib\src\usb_core.o
SetEPTxStatus                                     stm_usb_fs_lib\src\usb_regs.o
                                                  usb\usb_prop.o
                                                  stm_usb_fs_lib\src\usb_core.o
SetEPTxValid                                      stm_usb_fs_lib\src\usb_regs.o
                                                  usb\usb_endp.o
SetEPType                                         stm_usb_fs_lib\src\usb_regs.o
                                                  usb\usb_prop.o
SetEP_KIND                                        stm_usb_fs_lib\src\usb_regs.o
SetISTR                                           stm_usb_fs_lib\src\usb_regs.o
Set_Status_Out                                    stm_usb_fs_lib\src\usb_regs.o
Set_System                                        usb\hw_config.o
Set_USBClock                                      usb\hw_config.o
                                                  src\main.o
Setup0_Process                                    stm_usb_fs_lib\src\usb_core.o
                                                  stm_usb_fs_lib\src\usb_int.o
Standard_ClearFeature                             stm_usb_fs_lib\src\usb_core.o
Standard_GetConfiguration                         stm_usb_fs_lib\src\usb_core.o
Standard_GetDescriptorData                        stm_usb_fs_lib\src\usb_core.o
                                                  usb\usb_prop.o
Standard_GetInterface                             stm_usb_fs_lib\src\usb_core.o
Standard_GetStatus                                stm_usb_fs_lib\src\usb_core.o
Standard_SetConfiguration                         stm_usb_fs_lib\src\usb_core.o
Standard_SetDeviceFeature                         stm_usb_fs_lib\src\usb_core.o
Standard_SetEndPointFeature                       stm_usb_fs_lib\src\usb_core.o
Standard_SetInterface                             stm_usb_fs_lib\src\usb_core.o
StatusInfo                                        stm_usb_fs_lib\src\usb_core.o
String_Descriptor                                 usb\usb_prop.o
Suspend                                           usb\usb_pwr.o
SysTick_CLKSourceConfig                           Libraries\STM32F10x_StdPeriph_Driver\src\misc.o
SysTick_Handler                                   src\startup_stm32f10x_md.o
SystemCoreClock                                   src\system_stm32f10x.o
                                                  src\stepper.o
                                                  src\spindle_control.o
SystemCoreClockUpdate                             src\system_stm32f10x.o
SystemInit                                        src\system_stm32f10x.o
                                                  src\startup_stm32f10x_md.o
TAMPER_IRQHandler                                 src\startup_stm32f10x_md.o
TIM1_BRK_IRQHandler                               src\startup_stm32f10x_md.o
TIM1_CC_IRQHandler                                src\startup_stm32f10x_md.o
TIM1_TRG_COM_IRQHandler                           src\startup_stm32f10x_md.o
TIM1_UP_IRQHandler                                src\startup_stm32f10x_md.o
TIM2_IRQHandler                                   src\stepper.o
                                                  src\startup_stm32f10x_md.o
TIM3_IRQHandler                                   src\stepper.o
                                                  src\startup_stm32f10x_md.o
TIM4_IRQHandler                                   src\startup_stm32f10x_md.o
TIM_ARRPreloadConfig                              Libraries\STM32F10x_StdPeriph_Driver\src\stm32f10x_tim.o
TIM_BDTRConfig                                    Libraries\STM32F10x_StdPeriph_Driver\src\stm32f10x_tim.o
TIM_BDTRStructInit                                Libraries\STM32F10x_StdPeriph_Driver\src\stm32f10x_tim.o
TIM_CCPreloadControl                              Libraries\STM32F10x_StdPeriph_Driver\src\stm32f10x_tim.o
TIM_CCxCmd                                        Libraries\STM32F10x_StdPeriph_Driver\src\stm32f10x_tim.o
TIM_CCxNCmd                                       Libraries\STM32F10x_StdPeriph_Driver\src\stm32f10x_tim.o
TIM_ClearFlag                                     Libraries\STM32F10x_StdPeriph_Driver\src\stm32f10x_tim.o
TIM_ClearITPendingBit                             Libraries\STM32F10x_StdPeriph_Driver\src\stm32f10x_tim.o
                                                  src\stepper.o
TIM_ClearOC1Ref                                   Libraries\STM32F10x_StdPeriph_Driver\src\stm32f10x_tim.o
TIM_ClearOC2Ref                                   Libraries\STM32F10x_StdPeriph_Driver\src\stm32f10x_tim.o
TIM_ClearOC3Ref                                   Libraries\STM32F10x_StdPeriph_Driver\src\stm32f10x_tim.o
TIM_ClearOC4Ref                                   Libraries\STM32F10x_StdPeriph_Driver\src\stm32f10x_tim.o
TIM_Cmd                                           Libraries\STM32F10x_StdPeriph_Driver\src\stm32f10x_tim.o
                                                  src\stepper.o
                                                  src\spindle_control.o
TIM_Configuration                                 src\stepper.o
TIM_CounterModeConfig                             Libraries\STM32F10x_StdPeriph_Driver\src\stm32f10x_tim.o
TIM_CtrlPWMOutputs                                Libraries\STM32F10x_StdPeriph_Driver\src\stm32f10x_tim.o
                                                  src\spindle_control.o
TIM_DMACmd                                        Libraries\STM32F10x_StdPeriph_Driver\src\stm32f10x_tim.o
TIM_DMAConfig                                     Libraries\STM32F10x_StdPeriph_Driver\src\stm32f10x_tim.o
TIM_DeInit                                        Libraries\STM32F10x_StdPeriph_Driver\src\stm32f10x_tim.o
TIM_ETRClockMode1Config                           Libraries\STM32F10x_StdPeriph_Driver\src\stm32f10x_tim.o
TIM_ETRClockMode2Config                           Libraries\STM32F10x_StdPeriph_Driver\src\stm32f10x_tim.o
TIM_ETRConfig                                     Libraries\STM32F10x_StdPeriph_Driver\src\stm32f10x_tim.o
TIM_EncoderInterfaceConfig                        Libraries\STM32F10x_StdPeriph_Driver\src\stm32f10x_tim.o
TIM_ForcedOC1Config                               Libraries\STM32F10x_StdPeriph_Driver\src\stm32f10x_tim.o
TIM_ForcedOC2Config                               Libraries\STM32F10x_StdPeriph_Driver\src\stm32f10x_tim.o
TIM_ForcedOC3Config                               Libraries\STM32F10x_StdPeriph_Driver\src\stm32f10x_tim.o
TIM_ForcedOC4Config                               Libraries\STM32F10x_StdPeriph_Driver\src\stm32f10x_tim.o
TIM_GenerateEvent                                 Libraries\STM32F10x_StdPeriph_Driver\src\stm32f10x_tim.o
TIM_GetCapture1                                   Libraries\STM32F10x_StdPeriph_Driver\src\stm32f10x_tim.o
TIM_GetCapture2                                   Libraries\STM32F10x_StdPeriph_Driver\src\stm32f10x_tim.o
TIM_GetCapture3                                   Libraries\STM32F10x_StdPeriph_Driver\src\stm32f10x_tim.o
TIM_GetCapture4                                   Libraries\STM32F10x_StdPeriph_Driver\src\stm32f10x_tim.o
TIM_GetCounter                                    Libraries\STM32F10x_StdPeriph_Driver\src\stm32f10x_tim.o
TIM_GetFlagStatus                                 Libraries\STM32F10x_StdPeriph_Driver\src\stm32f10x_tim.o
TIM_GetITStatus                                   Libraries\STM32F10x_StdPeriph_Driver\src\stm32f10x_tim.o
TIM_GetPrescaler                                  Libraries\STM32F10x_StdPeriph_Driver\src\stm32f10x_tim.o
TIM_ICInit                                        Libraries\STM32F10x_StdPeriph_Driver\src\stm32f10x_tim.o
TIM_ICStructInit                                  Libraries\STM32F10x_StdPeriph_Driver\src\stm32f10x_tim.o
TIM_ITConfig                                      Libraries\STM32F10x_StdPeriph_Driver\src\stm32f10x_tim.o
                                                  src\stepper.o
TIM_ITRxExternalClockConfig                       Libraries\STM32F10x_StdPeriph_Driver\src\stm32f10x_tim.o
TIM_InternalClockConfig                           Libraries\STM32F10x_StdPeriph_Driver\src\stm32f10x_tim.o
TIM_OC1FastConfig                                 Libraries\STM32F10x_StdPeriph_Driver\src\stm32f10x_tim.o
TIM_OC1Init                                       Libraries\STM32F10x_StdPeriph_Driver\src\stm32f10x_tim.o
                                                  src\spindle_control.o
TIM_OC1NPolarityConfig                            Libraries\STM32F10x_StdPeriph_Driver\src\stm32f10x_tim.o
TIM_OC1PolarityConfig                             Libraries\STM32F10x_StdPeriph_Driver\src\stm32f10x_tim.o
TIM_OC1PreloadConfig                              Libraries\STM32F10x_StdPeriph_Driver\src\stm32f10x_tim.o
                                                  src\spindle_control.o
TIM_OC2FastConfig                                 Libraries\STM32F10x_StdPeriph_Driver\src\stm32f10x_tim.o
TIM_OC2Init                                       Libraries\STM32F10x_StdPeriph_Driver\src\stm32f10x_tim.o
TIM_OC2NPolarityConfig                            Libraries\STM32F10x_StdPeriph_Driver\src\stm32f10x_tim.o
TIM_OC2PolarityConfig                             Libraries\STM32F10x_StdPeriph_Driver\src\stm32f10x_tim.o
TIM_OC2PreloadConfig                              Libraries\STM32F10x_StdPeriph_Driver\src\stm32f10x_tim.o
TIM_OC3FastConfig                                 Libraries\STM32F10x_StdPeriph_Driver\src\stm32f10x_tim.o
TIM_OC3Init                                       Libraries\STM32F10x_StdPeriph_Driver\src\stm32f10x_tim.o
TIM_OC3NPolarityConfig                            Libraries\STM32F10x_StdPeriph_Driver\src\stm32f10x_tim.o
TIM_OC3PolarityConfig                             Libraries\STM32F10x_StdPeriph_Driver\src\stm32f10x_tim.o
TIM_OC3PreloadConfig                              Libraries\STM32F10x_StdPeriph_Driver\src\stm32f10x_tim.o
TIM_OC4FastConfig                                 Libraries\STM32F10x_StdPeriph_Driver\src\stm32f10x_tim.o
TIM_OC4Init                                       Libraries\STM32F10x_StdPeriph_Driver\src\stm32f10x_tim.o
TIM_OC4PolarityConfig                             Libraries\STM32F10x_StdPeriph_Driver\src\stm32f10x_tim.o
TIM_OC4PreloadConfig                              Libraries\STM32F10x_StdPeriph_Driver\src\stm32f10x_tim.o
TIM_OCStructInit                                  Libraries\STM32F10x_StdPeriph_Driver\src\stm32f10x_tim.o
TIM_PWMIConfig                                    Libraries\STM32F10x_StdPeriph_Driver\src\stm32f10x_tim.o
TIM_PrescalerConfig                               Libraries\STM32F10x_StdPeriph_Driver\src\stm32f10x_tim.o
TIM_SelectCCDMA                                   Libraries\STM32F10x_StdPeriph_Driver\src\stm32f10x_tim.o
TIM_SelectCOM                                     Libraries\STM32F10x_StdPeriph_Driver\src\stm32f10x_tim.o
TIM_SelectHallSensor                              Libraries\STM32F10x_StdPeriph_Driver\src\stm32f10x_tim.o
TIM_SelectInputTrigger                            Libraries\STM32F10x_StdPeriph_Driver\src\stm32f10x_tim.o
TIM_SelectMasterSlaveMode                         Libraries\STM32F10x_StdPeriph_Driver\src\stm32f10x_tim.o
TIM_SelectOCxM                                    Libraries\STM32F10x_StdPeriph_Driver\src\stm32f10x_tim.o
TIM_SelectOnePulseMode                            Libraries\STM32F10x_StdPeriph_Driver\src\stm32f10x_tim.o
TIM_SelectOutputTrigger                           Libraries\STM32F10x_StdPeriph_Driver\src\stm32f10x_tim.o
TIM_SelectSlaveMode                               Libraries\STM32F10x_StdPeriph_Driver\src\stm32f10x_tim.o
TIM_SetAutoreload                                 Libraries\STM32F10x_StdPeriph_Driver\src\stm32f10x_tim.o
TIM_SetClockDivision                              Libraries\STM32F10x_StdPeriph_Driver\src\stm32f10x_tim.o
TIM_SetCompare1                                   Libraries\STM32F10x_StdPeriph_Driver\src\stm32f10x_tim.o
TIM_SetCompare2                                   Libraries\STM32F10x_StdPeriph_Driver\src\stm32f10x_tim.o
TIM_SetCompare3                                   Libraries\STM32F10x_StdPeriph_Driver\src\stm32f10x_tim.o
TIM_SetCompare4                                   Libraries\STM32F10x_StdPeriph_Driver\src\stm32f10x_tim.o
TIM_SetCounter                                    Libraries\STM32F10x_StdPeriph_Driver\src\stm32f10x_tim.o
TIM_SetIC1Prescaler                               Libraries\STM32F10x_StdPeriph_Driver\src\stm32f10x_tim.o
TIM_SetIC2Prescaler                               Libraries\STM32F10x_StdPeriph_Driver\src\stm32f10x_tim.o
TIM_SetIC3Prescaler                               Libraries\STM32F10x_StdPeriph_Driver\src\stm32f10x_tim.o
TIM_SetIC4Prescaler                               Libraries\STM32F10x_StdPeriph_Driver\src\stm32f10x_tim.o
TIM_TIxExternalClockConfig                        Libraries\STM32F10x_StdPeriph_Driver\src\stm32f10x_tim.o
TIM_TimeBaseInit                                  Libraries\STM32F10x_StdPeriph_Driver\src\stm32f10x_tim.o
                                                  src\stepper.o
                                                  src\spindle_control.o
TIM_TimeBaseStructInit                            Libraries\STM32F10x_StdPeriph_Driver\src\stm32f10x_tim.o
                                                  src\spindle_control.o
TIM_UpdateDisableConfig                           Libraries\STM32F10x_StdPeriph_Driver\src\stm32f10x_tim.o
TIM_UpdateRequestConfig                           Libraries\STM32F10x_StdPeriph_Driver\src\stm32f10x_tim.o
ToWord                                            stm_usb_fs_lib\src\usb_regs.o
ToggleDTOG_RX                                     stm_usb_fs_lib\src\usb_regs.o
ToggleDTOG_TX                                     stm_usb_fs_lib\src\usb_regs.o
USART1_IRQHandler                                 src\startup_stm32f10x_md.o
USART2_IRQHandler                                 src\startup_stm32f10x_md.o
USART3_IRQHandler                                 src\startup_stm32f10x_md.o
USART_ClearFlag                                   Libraries\STM32F10x_StdPeriph_Driver\src\stm32f10x_usart.o
USART_ClearITPendingBit                           Libraries\STM32F10x_StdPeriph_Driver\src\stm32f10x_usart.o
USART_ClockInit                                   Libraries\STM32F10x_StdPeriph_Driver\src\stm32f10x_usart.o
USART_ClockStructInit                             Libraries\STM32F10x_StdPeriph_Driver\src\stm32f10x_usart.o
USART_Cmd                                         Libraries\STM32F10x_StdPeriph_Driver\src\stm32f10x_usart.o
USART_DMACmd                                      Libraries\STM32F10x_StdPeriph_Driver\src\stm32f10x_usart.o
USART_DeInit                                      Libraries\STM32F10x_StdPeriph_Driver\src\stm32f10x_usart.o
USART_GetFlagStatus                               Libraries\STM32F10x_StdPeriph_Driver\src\stm32f10x_usart.o
USART_GetITStatus                                 Libraries\STM32F10x_StdPeriph_Driver\src\stm32f10x_usart.o
USART_HalfDuplexCmd                               Libraries\STM32F10x_StdPeriph_Driver\src\stm32f10x_usart.o
USART_ITConfig                                    Libraries\STM32F10x_StdPeriph_Driver\src\stm32f10x_usart.o
USART_Init                                        Libraries\STM32F10x_StdPeriph_Driver\src\stm32f10x_usart.o
USART_IrDACmd                                     Libraries\STM32F10x_StdPeriph_Driver\src\stm32f10x_usart.o
USART_IrDAConfig                                  Libraries\STM32F10x_StdPeriph_Driver\src\stm32f10x_usart.o
USART_LINBreakDetectLengthConfig                  Libraries\STM32F10x_StdPeriph_Driver\src\stm32f10x_usart.o
USART_LINCmd                                      Libraries\STM32F10x_StdPeriph_Driver\src\stm32f10x_usart.o
USART_OneBitMethodCmd                             Libraries\STM32F10x_StdPeriph_Driver\src\stm32f10x_usart.o
USART_OverSampling8Cmd                            Libraries\STM32F10x_StdPeriph_Driver\src\stm32f10x_usart.o
USART_ReceiveData                                 Libraries\STM32F10x_StdPeriph_Driver\src\stm32f10x_usart.o
USART_ReceiverWakeUpCmd                           Libraries\STM32F10x_StdPeriph_Driver\src\stm32f10x_usart.o
USART_SendBreak                                   Libraries\STM32F10x_StdPeriph_Driver\src\stm32f10x_usart.o
USART_SendData                                    Libraries\STM32F10x_StdPeriph_Driver\src\stm32f10x_usart.o
USART_SetAddress                                  Libraries\STM32F10x_StdPeriph_Driver\src\stm32f10x_usart.o
USART_SetGuardTime                                Libraries\STM32F10x_StdPeriph_Driver\src\stm32f10x_usart.o
USART_SetPrescaler                                Libraries\STM32F10x_StdPeriph_Driver\src\stm32f10x_usart.o
USART_SmartCardCmd                                Libraries\STM32F10x_StdPeriph_Driver\src\stm32f10x_usart.o
USART_SmartCardNACKCmd                            Libraries\STM32F10x_StdPeriph_Driver\src\stm32f10x_usart.o
USART_StructInit                                  Libraries\STM32F10x_StdPeriph_Driver\src\stm32f10x_usart.o
USART_WakeUpConfig                                Libraries\STM32F10x_StdPeriph_Driver\src\stm32f10x_usart.o
USBWakeUp_IRQHandler                              src\startup_stm32f10x_md.o
USB_Cable_Config                                  usb\hw_config.o
                                                  usb\usb_pwr.o
USB_HP_CAN1_TX_IRQHandler                         src\startup_stm32f10x_md.o
USB_Init                                          stm_usb_fs_lib\src\usb_init.o
                                                  src\main.o
USB_Interrupts_Config                             usb\hw_config.o
                                                  src\main.o
USB_Istr                                          usb\usb_istr.o
                                                  util\stm32f10x_it.o
USB_LP_CAN1_RX0_IRQHandler                        util\stm32f10x_it.o
                                                  src\startup_stm32f10x_md.o
USB_Rx_Buffer                                     usb\usb_endp.o
USB_SIL_Init                                      stm_usb_fs_lib\src\usb_sil.o
                                                  usb\usb_prop.o
USB_SIL_Read                                      stm_usb_fs_lib\src\usb_sil.o
                                                  usb\usb_endp.o
USB_SIL_Write                                     stm_usb_fs_lib\src\usb_sil.o
UsageFault_Handler                                util\stm32f10x_it.o
                                                  src\startup_stm32f10x_md.o
UserToPMABufferCopy                               stm_usb_fs_lib\src\usb_mem.o
                                                  stm_usb_fs_lib\src\usb_sil.o
                                                  stm_usb_fs_lib\src\usb_core.o
User_Standard_Requests                            usb\usb_prop.o
                                                  stm_usb_fs_lib\src\usb_init.o
Virtual_Com_Port_ConfigDescriptor                 usb\usb_desc.o
                                                  usb\usb_prop.o
Virtual_Com_Port_Data_Setup                       usb\usb_prop.o
Virtual_Com_Port_DeviceDescriptor                 usb\usb_desc.o
                                                  usb\usb_prop.o
Virtual_Com_Port_GetConfigDescriptor              usb\usb_prop.o
Virtual_Com_Port_GetDeviceDescriptor              usb\usb_prop.o
Virtual_Com_Port_GetLineCoding                    usb\usb_prop.o
Virtual_Com_Port_GetStringDescriptor              usb\usb_prop.o
Virtual_Com_Port_Get_Interface_Setting            usb\usb_prop.o
Virtual_Com_Port_NoData_Setup                     usb\usb_prop.o
Virtual_Com_Port_Reset                            usb\usb_prop.o
Virtual_Com_Port_SetConfiguration                 usb\usb_prop.o
Virtual_Com_Port_SetDeviceAddress                 usb\usb_prop.o
Virtual_Com_Port_SetLineCoding                    usb\usb_prop.o
Virtual_Com_Port_Status_In                        usb\usb_prop.o
Virtual_Com_Port_Status_Out                       usb\usb_prop.o
Virtual_Com_Port_StringLangID                     usb\usb_desc.o
                                                  usb\usb_prop.o
Virtual_Com_Port_StringProduct                    usb\usb_desc.o
                                                  usb\usb_prop.o
Virtual_Com_Port_StringSerial                     usb\usb_desc.o
                                                  usb\usb_prop.o
                                                  usb\hw_config.o
Virtual_Com_Port_StringVendor                     usb\usb_desc.o
                                                  usb\usb_prop.o
Virtual_Com_Port_init                             usb\usb_prop.o
WWDG_ClearFlag                                    Libraries\STM32F10x_StdPeriph_Driver\src\stm32f10x_wwdg.o
WWDG_DeInit                                       Libraries\STM32F10x_StdPeriph_Driver\src\stm32f10x_wwdg.o
WWDG_Enable                                       Libraries\STM32F10x_StdPeriph_Driver\src\stm32f10x_wwdg.o
WWDG_EnableIT                                     Libraries\STM32F10x_StdPeriph_Driver\src\stm32f10x_wwdg.o
WWDG_GetFlagStatus                                Libraries\STM32F10x_StdPeriph_Driver\src\stm32f10x_wwdg.o
WWDG_IRQHandler                                   src\startup_stm32f10x_md.o
WWDG_SetCounter                                   Libraries\STM32F10x_StdPeriph_Driver\src\stm32f10x_wwdg.o
WWDG_SetPrescaler                                 Libraries\STM32F10x_StdPeriph_Driver\src\stm32f10x_wwdg.o
WWDG_SetWindowValue                               Libraries\STM32F10x_StdPeriph_Driver\src\stm32f10x_wwdg.o
__adddf3                                          c:/program files (x86)/atollic/truestudio for stm32 9.1.0/armtools/bin/../lib/gcc/arm-atollic-eabi/6.3.1/armv7-m\libgcc.a(_arm_addsubdf3.o)
__addsf3                                          c:/program files (x86)/atollic/truestudio for stm32 9.1.0/armtools/bin/../lib/gcc/arm-atollic-eabi/6.3.1/armv7-m\libgcc.a(_arm_addsubsf3.o)
__aeabi_cdcmpeq                                   c:/program files (x86)/atollic/truestudio for stm32 9.1.0/armtools/bin/../lib/gcc/arm-atollic-eabi/6.3.1/armv7-m\libgcc.a(_arm_cmpdf2.o)
__aeabi_cdcmple                                   c:/program files (x86)/atollic/truestudio for stm32 9.1.0/armtools/bin/../lib/gcc/arm-atollic-eabi/6.3.1/armv7-m\libgcc.a(_arm_cmpdf2.o)
__aeabi_cdrcmple                                  c:/program files (x86)/atollic/truestudio for stm32 9.1.0/armtools/bin/../lib/gcc/arm-atollic-eabi/6.3.1/armv7-m\libgcc.a(_arm_cmpdf2.o)
__aeabi_cfcmpeq                                   c:/program files (x86)/atollic/truestudio for stm32 9.1.0/armtools/bin/../lib/gcc/arm-atollic-eabi/6.3.1/armv7-m\libgcc.a(_arm_cmpsf2.o)
__aeabi_cfcmple                                   c:/program files (x86)/atollic/truestudio for stm32 9.1.0/armtools/bin/../lib/gcc/arm-atollic-eabi/6.3.1/armv7-m\libgcc.a(_arm_cmpsf2.o)
__aeabi_cfrcmple                                  c:/program files (x86)/atollic/truestudio for stm32 9.1.0/armtools/bin/../lib/gcc/arm-atollic-eabi/6.3.1/armv7-m\libgcc.a(_arm_cmpsf2.o)
__aeabi_d2f                                       c:/program files (x86)/atollic/truestudio for stm32 9.1.0/armtools/bin/../lib/gcc/arm-atollic-eabi/6.3.1/armv7-m\libgcc.a(_arm_truncdfsf2.o)
                                                  c:/program files (x86)/atollic/truestudio for stm32 9.1.0/armtools/bin/../lib/gcc/arm-atollic-eabi/6.3.1/../../../../arm-atollic-eabi/lib/armv7-m\libm.a(lib_a-wf_sqrt.o)
                                                  src\motion_control.o
__aeabi_dadd                                      c:/program files (x86)/atollic/truestudio for stm32 9.1.0/armtools/bin/../lib/gcc/arm-atollic-eabi/6.3.1/armv7-m\libgcc.a(_arm_addsubdf3.o)
                                                  src\motion_control.o
__aeabi_dcmpeq                                    c:/program files (x86)/atollic/truestudio for stm32 9.1.0/armtools/bin/../lib/gcc/arm-atollic-eabi/6.3.1/armv7-m\libgcc.a(_arm_cmpdf2.o)
__aeabi_dcmpge                                    c:/program files (x86)/atollic/truestudio for stm32 9.1.0/armtools/bin/../lib/gcc/arm-atollic-eabi/6.3.1/armv7-m\libgcc.a(_arm_cmpdf2.o)
                                                  src\motion_control.o
__aeabi_dcmpgt                                    c:/program files (x86)/atollic/truestudio for stm32 9.1.0/armtools/bin/../lib/gcc/arm-atollic-eabi/6.3.1/armv7-m\libgcc.a(_arm_cmpdf2.o)
__aeabi_dcmple                                    c:/program files (x86)/atollic/truestudio for stm32 9.1.0/armtools/bin/../lib/gcc/arm-atollic-eabi/6.3.1/armv7-m\libgcc.a(_arm_cmpdf2.o)
                                                  src\motion_control.o
__aeabi_dcmplt                                    c:/program files (x86)/atollic/truestudio for stm32 9.1.0/armtools/bin/../lib/gcc/arm-atollic-eabi/6.3.1/armv7-m\libgcc.a(_arm_cmpdf2.o)
__aeabi_ddiv                                      c:/program files (x86)/atollic/truestudio for stm32 9.1.0/armtools/bin/../lib/gcc/arm-atollic-eabi/6.3.1/armv7-m\libgcc.a(_arm_muldivdf3.o)
                                                  c:/program files (x86)/atollic/truestudio for stm32 9.1.0/armtools/bin/../lib/gcc/arm-atollic-eabi/6.3.1/../../../../arm-atollic-eabi/lib/armv7-m\libm.a(lib_a-wf_sqrt.o)
__aeabi_dmul                                      c:/program files (x86)/atollic/truestudio for stm32 9.1.0/armtools/bin/../lib/gcc/arm-atollic-eabi/6.3.1/armv7-m\libgcc.a(_arm_muldivdf3.o)
__aeabi_drsub                                     c:/program files (x86)/atollic/truestudio for stm32 9.1.0/armtools/bin/../lib/gcc/arm-atollic-eabi/6.3.1/armv7-m\libgcc.a(_arm_addsubdf3.o)
__aeabi_dsub                                      c:/program files (x86)/atollic/truestudio for stm32 9.1.0/armtools/bin/../lib/gcc/arm-atollic-eabi/6.3.1/armv7-m\libgcc.a(_arm_addsubdf3.o)
                                                  src\motion_control.o
__aeabi_f2d                                       c:/program files (x86)/atollic/truestudio for stm32 9.1.0/armtools/bin/../lib/gcc/arm-atollic-eabi/6.3.1/armv7-m\libgcc.a(_arm_addsubdf3.o)
                                                  c:/program files (x86)/atollic/truestudio for stm32 9.1.0/armtools/bin/../lib/gcc/arm-atollic-eabi/6.3.1/../../../../arm-atollic-eabi/lib/armv7-m\libm.a(lib_a-wf_sqrt.o)
                                                  src\motion_control.o
__aeabi_f2iz                                      c:/program files (x86)/atollic/truestudio for stm32 9.1.0/armtools/bin/../lib/gcc/arm-atollic-eabi/6.3.1/armv7-m\libgcc.a(_arm_fixsfsi.o)
                                                  c:/program files (x86)/atollic/truestudio for stm32 9.1.0/armtools/bin/../lib/gcc/arm-atollic-eabi/6.3.1/../../../../arm-atollic-eabi/lib/armv7-m\libm.a(lib_a-kf_sin.o)
                                                  c:/program files (x86)/atollic/truestudio for stm32 9.1.0/armtools/bin/../lib/gcc/arm-atollic-eabi/6.3.1/../../../../arm-atollic-eabi/lib/armv7-m\libm.a(lib_a-kf_rem_pio2.o)
                                                  c:/program files (x86)/atollic/truestudio for stm32 9.1.0/armtools/bin/../lib/gcc/arm-atollic-eabi/6.3.1/../../../../arm-atollic-eabi/lib/armv7-m\libm.a(lib_a-kf_cos.o)
                                                  c:/program files (x86)/atollic/truestudio for stm32 9.1.0/armtools/bin/../lib/gcc/arm-atollic-eabi/6.3.1/../../../../arm-atollic-eabi/lib/armv7-m\libm.a(lib_a-ef_rem_pio2.o)
                                                  c:/program files (x86)/atollic/truestudio for stm32 9.1.0/armtools/bin/../lib/gcc/arm-atollic-eabi/6.3.1/../../../../arm-atollic-eabi/lib/armv7-m\libm.a(lib_a-sf_lround.o)
                                                  src\print.o
                                                  src\gcode.o
__aeabi_f2uiz                                     c:/program files (x86)/atollic/truestudio for stm32 9.1.0/armtools/bin/../lib/gcc/arm-atollic-eabi/6.3.1/armv7-m\libgcc.a(_arm_fixunssfsi.o)
                                                  src\system.o
                                                  src\stepper.o
                                                  src\spindle_control.o
                                                  src\settings.o
                                                  src\nuts_bolts.o
                                                  src\motion_control.o
                                                  src\gcode.o
__aeabi_fadd                                      c:/program files (x86)/atollic/truestudio for stm32 9.1.0/armtools/bin/../lib/gcc/arm-atollic-eabi/6.3.1/armv7-m\libgcc.a(_arm_addsubsf3.o)
                                                  c:/program files (x86)/atollic/truestudio for stm32 9.1.0/armtools/bin/../lib/gcc/arm-atollic-eabi/6.3.1/../../../../arm-atollic-eabi/lib/armv7-m\libm.a(lib_a-sf_scalbn.o)
                                                  c:/program files (x86)/atollic/truestudio for stm32 9.1.0/armtools/bin/../lib/gcc/arm-atollic-eabi/6.3.1/../../../../arm-atollic-eabi/lib/armv7-m\libm.a(lib_a-sf_atan.o)
                                                  c:/program files (x86)/atollic/truestudio for stm32 9.1.0/armtools/bin/../lib/gcc/arm-atollic-eabi/6.3.1/../../../../arm-atollic-eabi/lib/armv7-m\libm.a(lib_a-kf_sin.o)
                                                  c:/program files (x86)/atollic/truestudio for stm32 9.1.0/armtools/bin/../lib/gcc/arm-atollic-eabi/6.3.1/../../../../arm-atollic-eabi/lib/armv7-m\libm.a(lib_a-kf_rem_pio2.o)
                                                  c:/program files (x86)/atollic/truestudio for stm32 9.1.0/armtools/bin/../lib/gcc/arm-atollic-eabi/6.3.1/../../../../arm-atollic-eabi/lib/armv7-m\libm.a(lib_a-kf_cos.o)
                                                  c:/program files (x86)/atollic/truestudio for stm32 9.1.0/armtools/bin/../lib/gcc/arm-atollic-eabi/6.3.1/../../../../arm-atollic-eabi/lib/armv7-m\libm.a(lib_a-ef_sqrt.o)
                                                  c:/program files (x86)/atollic/truestudio for stm32 9.1.0/armtools/bin/../lib/gcc/arm-atollic-eabi/6.3.1/../../../../arm-atollic-eabi/lib/armv7-m\libm.a(lib_a-ef_rem_pio2.o)
                                                  c:/program files (x86)/atollic/truestudio for stm32 9.1.0/armtools/bin/../lib/gcc/arm-atollic-eabi/6.3.1/../../../../arm-atollic-eabi/lib/armv7-m\libm.a(lib_a-ef_atan2.o)
                                                  c:/program files (x86)/atollic/truestudio for stm32 9.1.0/armtools/bin/../lib/gcc/arm-atollic-eabi/6.3.1/../../../../arm-atollic-eabi/lib/armv7-m\libm.a(lib_a-sf_floor.o)
                                                  c:/program files (x86)/atollic/truestudio for stm32 9.1.0/armtools/bin/../lib/gcc/arm-atollic-eabi/6.3.1/../../../../arm-atollic-eabi/lib/armv7-m\libm.a(lib_a-sf_ceil.o)
                                                  src\stepper.o
                                                  src\report.o
                                                  src\print.o
                                                  src\planner.o
                                                  src\nuts_bolts.o
                                                  src\motion_control.o
                                                  src\limits.o
                                                  src\gcode.o
__aeabi_fcmpeq                                    c:/program files (x86)/atollic/truestudio for stm32 9.1.0/armtools/bin/../lib/gcc/arm-atollic-eabi/6.3.1/armv7-m\libgcc.a(_arm_cmpsf2.o)
                                                  c:/program files (x86)/atollic/truestudio for stm32 9.1.0/armtools/bin/../lib/gcc/arm-atollic-eabi/6.3.1/../../../../arm-atollic-eabi/lib/armv7-m\libm.a(lib_a-kf_rem_pio2.o)
                                                  c:/program files (x86)/atollic/truestudio for stm32 9.1.0/armtools/bin/../lib/gcc/arm-atollic-eabi/6.3.1/../../../../arm-atollic-eabi/lib/armv7-m\libm.a(lib_a-ef_rem_pio2.o)
                                                  src\stepper.o
                                                  src\spindle_control.o
                                                  src\planner.o
                                                  src\nuts_bolts.o
                                                  src\gcode.o
__aeabi_fcmpge                                    c:/program files (x86)/atollic/truestudio for stm32 9.1.0/armtools/bin/../lib/gcc/arm-atollic-eabi/6.3.1/armv7-m\libgcc.a(_arm_cmpsf2.o)
                                                  c:/program files (x86)/atollic/truestudio for stm32 9.1.0/armtools/bin/../lib/gcc/arm-atollic-eabi/6.3.1/../../../../arm-atollic-eabi/lib/armv7-m\libm.a(lib_a-kf_rem_pio2.o)
                                                  src\stepper.o
                                                  src\spindle_control.o
                                                  src\planner.o
                                                  src\limits.o
__aeabi_fcmpgt                                    c:/program files (x86)/atollic/truestudio for stm32 9.1.0/armtools/bin/../lib/gcc/arm-atollic-eabi/6.3.1/armv7-m\libgcc.a(_arm_cmpsf2.o)
                                                  c:/program files (x86)/atollic/truestudio for stm32 9.1.0/armtools/bin/../lib/gcc/arm-atollic-eabi/6.3.1/../../../../arm-atollic-eabi/lib/armv7-m\libm.a(lib_a-sf_atan.o)
                                                  c:/program files (x86)/atollic/truestudio for stm32 9.1.0/armtools/bin/../lib/gcc/arm-atollic-eabi/6.3.1/../../../../arm-atollic-eabi/lib/armv7-m\libm.a(lib_a-sf_floor.o)
                                                  c:/program files (x86)/atollic/truestudio for stm32 9.1.0/armtools/bin/../lib/gcc/arm-atollic-eabi/6.3.1/../../../../arm-atollic-eabi/lib/armv7-m\libm.a(lib_a-sf_ceil.o)
                                                  src\system.o
                                                  src\stepper.o
                                                  src\planner.o
                                                  src\gcode.o
__aeabi_fcmple                                    c:/program files (x86)/atollic/truestudio for stm32 9.1.0/armtools/bin/../lib/gcc/arm-atollic-eabi/6.3.1/armv7-m\libgcc.a(_arm_cmpsf2.o)
                                                  src\stepper.o
                                                  src\spindle_control.o
                                                  src\planner.o
                                                  src\nuts_bolts.o
__aeabi_fcmplt                                    c:/program files (x86)/atollic/truestudio for stm32 9.1.0/armtools/bin/../lib/gcc/arm-atollic-eabi/6.3.1/armv7-m\libgcc.a(_arm_cmpsf2.o)
                                                  c:/program files (x86)/atollic/truestudio for stm32 9.1.0/armtools/bin/../lib/gcc/arm-atollic-eabi/6.3.1/../../../../arm-atollic-eabi/lib/armv7-m\libm.a(lib_a-wf_sqrt.o)
                                                  src\system.o
                                                  src\stepper.o
                                                  src\settings.o
                                                  src\print.o
                                                  src\planner.o
                                                  src\gcode.o
__aeabi_fcmpun                                    c:/program files (x86)/atollic/truestudio for stm32 9.1.0/armtools/bin/../lib/gcc/arm-atollic-eabi/6.3.1/armv7-m\libgcc.a(_arm_unordsf2.o)
                                                  c:/program files (x86)/atollic/truestudio for stm32 9.1.0/armtools/bin/../lib/gcc/arm-atollic-eabi/6.3.1/../../../../arm-atollic-eabi/lib/armv7-m\libm.a(lib_a-wf_sqrt.o)
__aeabi_fdiv                                      c:/program files (x86)/atollic/truestudio for stm32 9.1.0/armtools/bin/../lib/gcc/arm-atollic-eabi/6.3.1/armv7-m\libgcc.a(_arm_muldivsf3.o)
                                                  c:/program files (x86)/atollic/truestudio for stm32 9.1.0/armtools/bin/../lib/gcc/arm-atollic-eabi/6.3.1/../../../../arm-atollic-eabi/lib/armv7-m\libm.a(lib_a-sf_atan.o)
                                                  c:/program files (x86)/atollic/truestudio for stm32 9.1.0/armtools/bin/../lib/gcc/arm-atollic-eabi/6.3.1/../../../../arm-atollic-eabi/lib/armv7-m\libm.a(lib_a-ef_sqrt.o)
                                                  c:/program files (x86)/atollic/truestudio for stm32 9.1.0/armtools/bin/../lib/gcc/arm-atollic-eabi/6.3.1/../../../../arm-atollic-eabi/lib/armv7-m\libm.a(lib_a-ef_atan2.o)
                                                  src\system.o
                                                  src\stepper.o
                                                  src\spindle_control.o
                                                  src\planner.o
                                                  src\nuts_bolts.o
                                                  src\motion_control.o
                                                  src\gcode.o
__aeabi_fmul                                      c:/program files (x86)/atollic/truestudio for stm32 9.1.0/armtools/bin/../lib/gcc/arm-atollic-eabi/6.3.1/armv7-m\libgcc.a(_arm_muldivsf3.o)
                                                  c:/program files (x86)/atollic/truestudio for stm32 9.1.0/armtools/bin/../lib/gcc/arm-atollic-eabi/6.3.1/../../../../arm-atollic-eabi/lib/armv7-m\libm.a(lib_a-sf_scalbn.o)
                                                  c:/program files (x86)/atollic/truestudio for stm32 9.1.0/armtools/bin/../lib/gcc/arm-atollic-eabi/6.3.1/../../../../arm-atollic-eabi/lib/armv7-m\libm.a(lib_a-sf_atan.o)
                                                  c:/program files (x86)/atollic/truestudio for stm32 9.1.0/armtools/bin/../lib/gcc/arm-atollic-eabi/6.3.1/../../../../arm-atollic-eabi/lib/armv7-m\libm.a(lib_a-kf_sin.o)
                                                  c:/program files (x86)/atollic/truestudio for stm32 9.1.0/armtools/bin/../lib/gcc/arm-atollic-eabi/6.3.1/../../../../arm-atollic-eabi/lib/armv7-m\libm.a(lib_a-kf_rem_pio2.o)
                                                  c:/program files (x86)/atollic/truestudio for stm32 9.1.0/armtools/bin/../lib/gcc/arm-atollic-eabi/6.3.1/../../../../arm-atollic-eabi/lib/armv7-m\libm.a(lib_a-kf_cos.o)
                                                  c:/program files (x86)/atollic/truestudio for stm32 9.1.0/armtools/bin/../lib/gcc/arm-atollic-eabi/6.3.1/../../../../arm-atollic-eabi/lib/armv7-m\libm.a(lib_a-ef_sqrt.o)
                                                  c:/program files (x86)/atollic/truestudio for stm32 9.1.0/armtools/bin/../lib/gcc/arm-atollic-eabi/6.3.1/../../../../arm-atollic-eabi/lib/armv7-m\libm.a(lib_a-ef_rem_pio2.o)
                                                  src\stepper.o
                                                  src\spindle_control.o
                                                  src\settings.o
                                                  src\report.o
                                                  src\print.o
                                                  src\planner.o
                                                  src\nuts_bolts.o
                                                  src\motion_control.o
                                                  src\limits.o
                                                  src\gcode.o
__aeabi_frsub                                     c:/program files (x86)/atollic/truestudio for stm32 9.1.0/armtools/bin/../lib/gcc/arm-atollic-eabi/6.3.1/armv7-m\libgcc.a(_arm_addsubsf3.o)
__aeabi_fsub                                      c:/program files (x86)/atollic/truestudio for stm32 9.1.0/armtools/bin/../lib/gcc/arm-atollic-eabi/6.3.1/armv7-m\libgcc.a(_arm_addsubsf3.o)
                                                  c:/program files (x86)/atollic/truestudio for stm32 9.1.0/armtools/bin/../lib/gcc/arm-atollic-eabi/6.3.1/../../../../arm-atollic-eabi/lib/armv7-m\libm.a(lib_a-sf_atan.o)
                                                  c:/program files (x86)/atollic/truestudio for stm32 9.1.0/armtools/bin/../lib/gcc/arm-atollic-eabi/6.3.1/../../../../arm-atollic-eabi/lib/armv7-m\libm.a(lib_a-kf_sin.o)
                                                  c:/program files (x86)/atollic/truestudio for stm32 9.1.0/armtools/bin/../lib/gcc/arm-atollic-eabi/6.3.1/../../../../arm-atollic-eabi/lib/armv7-m\libm.a(lib_a-kf_rem_pio2.o)
                                                  c:/program files (x86)/atollic/truestudio for stm32 9.1.0/armtools/bin/../lib/gcc/arm-atollic-eabi/6.3.1/../../../../arm-atollic-eabi/lib/armv7-m\libm.a(lib_a-kf_cos.o)
                                                  c:/program files (x86)/atollic/truestudio for stm32 9.1.0/armtools/bin/../lib/gcc/arm-atollic-eabi/6.3.1/../../../../arm-atollic-eabi/lib/armv7-m\libm.a(lib_a-ef_sqrt.o)
                                                  c:/program files (x86)/atollic/truestudio for stm32 9.1.0/armtools/bin/../lib/gcc/arm-atollic-eabi/6.3.1/../../../../arm-atollic-eabi/lib/armv7-m\libm.a(lib_a-ef_rem_pio2.o)
                                                  c:/program files (x86)/atollic/truestudio for stm32 9.1.0/armtools/bin/../lib/gcc/arm-atollic-eabi/6.3.1/../../../../arm-atollic-eabi/lib/armv7-m\libm.a(lib_a-ef_atan2.o)
                                                  c:/program files (x86)/atollic/truestudio for stm32 9.1.0/armtools/bin/../lib/gcc/arm-atollic-eabi/6.3.1/../../../../arm-atollic-eabi/lib/armv7-m\libm.a(lib_a-sf_sin.o)
                                                  c:/program files (x86)/atollic/truestudio for stm32 9.1.0/armtools/bin/../lib/gcc/arm-atollic-eabi/6.3.1/../../../../arm-atollic-eabi/lib/armv7-m\libm.a(lib_a-sf_cos.o)
                                                  src\stepper.o
                                                  src\spindle_control.o
                                                  src\report.o
                                                  src\planner.o
                                                  src\motion_control.o
                                                  src\gcode.o
__aeabi_i2d                                       c:/program files (x86)/atollic/truestudio for stm32 9.1.0/armtools/bin/../lib/gcc/arm-atollic-eabi/6.3.1/armv7-m\libgcc.a(_arm_addsubdf3.o)
__aeabi_i2f                                       c:/program files (x86)/atollic/truestudio for stm32 9.1.0/armtools/bin/../lib/gcc/arm-atollic-eabi/6.3.1/armv7-m\libgcc.a(_arm_addsubsf3.o)
                                                  c:/program files (x86)/atollic/truestudio for stm32 9.1.0/armtools/bin/../lib/gcc/arm-atollic-eabi/6.3.1/../../../../arm-atollic-eabi/lib/armv7-m\libm.a(lib_a-kf_rem_pio2.o)
                                                  c:/program files (x86)/atollic/truestudio for stm32 9.1.0/armtools/bin/../lib/gcc/arm-atollic-eabi/6.3.1/../../../../arm-atollic-eabi/lib/armv7-m\libm.a(lib_a-ef_rem_pio2.o)
                                                  src\system.o
                                                  src\spindle_control.o
                                                  src\planner.o
                                                  src\motion_control.o
                                                  src\gcode.o
__aeabi_l2d                                       c:/program files (x86)/atollic/truestudio for stm32 9.1.0/armtools/bin/../lib/gcc/arm-atollic-eabi/6.3.1/armv7-m\libgcc.a(_arm_addsubdf3.o)
__aeabi_l2f                                       c:/program files (x86)/atollic/truestudio for stm32 9.1.0/armtools/bin/../lib/gcc/arm-atollic-eabi/6.3.1/armv7-m\libgcc.a(_arm_addsubsf3.o)
__aeabi_ui2d                                      c:/program files (x86)/atollic/truestudio for stm32 9.1.0/armtools/bin/../lib/gcc/arm-atollic-eabi/6.3.1/armv7-m\libgcc.a(_arm_addsubdf3.o)
__aeabi_ui2f                                      c:/program files (x86)/atollic/truestudio for stm32 9.1.0/armtools/bin/../lib/gcc/arm-atollic-eabi/6.3.1/armv7-m\libgcc.a(_arm_addsubsf3.o)
                                                  src\stepper.o
                                                  src\nuts_bolts.o
                                                  src\limits.o
__aeabi_ul2d                                      c:/program files (x86)/atollic/truestudio for stm32 9.1.0/armtools/bin/../lib/gcc/arm-atollic-eabi/6.3.1/armv7-m\libgcc.a(_arm_addsubdf3.o)
__aeabi_ul2f                                      c:/program files (x86)/atollic/truestudio for stm32 9.1.0/armtools/bin/../lib/gcc/arm-atollic-eabi/6.3.1/armv7-m\libgcc.a(_arm_addsubsf3.o)
__cmpdf2                                          c:/program files (x86)/atollic/truestudio for stm32 9.1.0/armtools/bin/../lib/gcc/arm-atollic-eabi/6.3.1/armv7-m\libgcc.a(_arm_cmpdf2.o)
__cmpsf2                                          c:/program files (x86)/atollic/truestudio for stm32 9.1.0/armtools/bin/../lib/gcc/arm-atollic-eabi/6.3.1/armv7-m\libgcc.a(_arm_cmpsf2.o)
__deregister_frame_info                           c:/program files (x86)/atollic/truestudio for stm32 9.1.0/armtools/bin/../lib/gcc/arm-atollic-eabi/6.3.1/armv7-m/crtbegin.o
__divdf3                                          c:/program files (x86)/atollic/truestudio for stm32 9.1.0/armtools/bin/../lib/gcc/arm-atollic-eabi/6.3.1/armv7-m\libgcc.a(_arm_muldivdf3.o)
__divsf3                                          c:/program files (x86)/atollic/truestudio for stm32 9.1.0/armtools/bin/../lib/gcc/arm-atollic-eabi/6.3.1/armv7-m\libgcc.a(_arm_muldivsf3.o)
__dso_handle                                      c:/program files (x86)/atollic/truestudio for stm32 9.1.0/armtools/bin/../lib/gcc/arm-atollic-eabi/6.3.1/armv7-m/crtbegin.o
__eqdf2                                           c:/program files (x86)/atollic/truestudio for stm32 9.1.0/armtools/bin/../lib/gcc/arm-atollic-eabi/6.3.1/armv7-m\libgcc.a(_arm_cmpdf2.o)
__eqsf2                                           c:/program files (x86)/atollic/truestudio for stm32 9.1.0/armtools/bin/../lib/gcc/arm-atollic-eabi/6.3.1/armv7-m\libgcc.a(_arm_cmpsf2.o)
__errno                                           c:/program files (x86)/atollic/truestudio for stm32 9.1.0/armtools/bin/../lib/gcc/arm-atollic-eabi/6.3.1/../../../../arm-atollic-eabi/lib/armv7-m\libc.a(lib_a-errno.o)
                                                  c:/program files (x86)/atollic/truestudio for stm32 9.1.0/armtools/bin/../lib/gcc/arm-atollic-eabi/6.3.1/../../../../arm-atollic-eabi/lib/armv7-m\libm.a(lib_a-wf_sqrt.o)
__extendsfdf2                                     c:/program files (x86)/atollic/truestudio for stm32 9.1.0/armtools/bin/../lib/gcc/arm-atollic-eabi/6.3.1/armv7-m\libgcc.a(_arm_addsubdf3.o)
__fdlib_version                                   c:/program files (x86)/atollic/truestudio for stm32 9.1.0/armtools/bin/../lib/gcc/arm-atollic-eabi/6.3.1/../../../../arm-atollic-eabi/lib/armv7-m\libm.a(lib_a-s_lib_ver.o)
                                                  c:/program files (x86)/atollic/truestudio for stm32 9.1.0/armtools/bin/../lib/gcc/arm-atollic-eabi/6.3.1/../../../../arm-atollic-eabi/lib/armv7-m\libm.a(lib_a-wf_sqrt.o)
__fixsfsi                                         c:/program files (x86)/atollic/truestudio for stm32 9.1.0/armtools/bin/../lib/gcc/arm-atollic-eabi/6.3.1/armv7-m\libgcc.a(_arm_fixsfsi.o)
__fixunssfsi                                      c:/program files (x86)/atollic/truestudio for stm32 9.1.0/armtools/bin/../lib/gcc/arm-atollic-eabi/6.3.1/armv7-m\libgcc.a(_arm_fixunssfsi.o)
__floatdidf                                       c:/program files (x86)/atollic/truestudio for stm32 9.1.0/armtools/bin/../lib/gcc/arm-atollic-eabi/6.3.1/armv7-m\libgcc.a(_arm_addsubdf3.o)
__floatdisf                                       c:/program files (x86)/atollic/truestudio for stm32 9.1.0/armtools/bin/../lib/gcc/arm-atollic-eabi/6.3.1/armv7-m\libgcc.a(_arm_addsubsf3.o)
__floatsidf                                       c:/program files (x86)/atollic/truestudio for stm32 9.1.0/armtools/bin/../lib/gcc/arm-atollic-eabi/6.3.1/armv7-m\libgcc.a(_arm_addsubdf3.o)
__floatsisf                                       c:/program files (x86)/atollic/truestudio for stm32 9.1.0/armtools/bin/../lib/gcc/arm-atollic-eabi/6.3.1/armv7-m\libgcc.a(_arm_addsubsf3.o)
__floatundidf                                     c:/program files (x86)/atollic/truestudio for stm32 9.1.0/armtools/bin/../lib/gcc/arm-atollic-eabi/6.3.1/armv7-m\libgcc.a(_arm_addsubdf3.o)
__floatundisf                                     c:/program files (x86)/atollic/truestudio for stm32 9.1.0/armtools/bin/../lib/gcc/arm-atollic-eabi/6.3.1/armv7-m\libgcc.a(_arm_addsubsf3.o)
__floatunsidf                                     c:/program files (x86)/atollic/truestudio for stm32 9.1.0/armtools/bin/../lib/gcc/arm-atollic-eabi/6.3.1/armv7-m\libgcc.a(_arm_addsubdf3.o)
__floatunsisf                                     c:/program files (x86)/atollic/truestudio for stm32 9.1.0/armtools/bin/../lib/gcc/arm-atollic-eabi/6.3.1/armv7-m\libgcc.a(_arm_addsubsf3.o)
__gedf2                                           c:/program files (x86)/atollic/truestudio for stm32 9.1.0/armtools/bin/../lib/gcc/arm-atollic-eabi/6.3.1/armv7-m\libgcc.a(_arm_cmpdf2.o)
__gesf2                                           c:/program files (x86)/atollic/truestudio for stm32 9.1.0/armtools/bin/../lib/gcc/arm-atollic-eabi/6.3.1/armv7-m\libgcc.a(_arm_cmpsf2.o)
__gtdf2                                           c:/program files (x86)/atollic/truestudio for stm32 9.1.0/armtools/bin/../lib/gcc/arm-atollic-eabi/6.3.1/armv7-m\libgcc.a(_arm_cmpdf2.o)
__gtsf2                                           c:/program files (x86)/atollic/truestudio for stm32 9.1.0/armtools/bin/../lib/gcc/arm-atollic-eabi/6.3.1/armv7-m\libgcc.a(_arm_cmpsf2.o)
__ieee754_atan2f                                  c:/program files (x86)/atollic/truestudio for stm32 9.1.0/armtools/bin/../lib/gcc/arm-atollic-eabi/6.3.1/../../../../arm-atollic-eabi/lib/armv7-m\libm.a(lib_a-ef_atan2.o)
                                                  c:/program files (x86)/atollic/truestudio for stm32 9.1.0/armtools/bin/../lib/gcc/arm-atollic-eabi/6.3.1/../../../../arm-atollic-eabi/lib/armv7-m\libm.a(lib_a-wf_atan2.o)
__ieee754_rem_pio2f                               c:/program files (x86)/atollic/truestudio for stm32 9.1.0/armtools/bin/../lib/gcc/arm-atollic-eabi/6.3.1/../../../../arm-atollic-eabi/lib/armv7-m\libm.a(lib_a-ef_rem_pio2.o)
                                                  c:/program files (x86)/atollic/truestudio for stm32 9.1.0/armtools/bin/../lib/gcc/arm-atollic-eabi/6.3.1/../../../../arm-atollic-eabi/lib/armv7-m\libm.a(lib_a-sf_sin.o)
                                                  c:/program files (x86)/atollic/truestudio for stm32 9.1.0/armtools/bin/../lib/gcc/arm-atollic-eabi/6.3.1/../../../../arm-atollic-eabi/lib/armv7-m\libm.a(lib_a-sf_cos.o)
__ieee754_sqrtf                                   c:/program files (x86)/atollic/truestudio for stm32 9.1.0/armtools/bin/../lib/gcc/arm-atollic-eabi/6.3.1/../../../../arm-atollic-eabi/lib/armv7-m\libm.a(lib_a-ef_sqrt.o)
                                                  c:/program files (x86)/atollic/truestudio for stm32 9.1.0/armtools/bin/../lib/gcc/arm-atollic-eabi/6.3.1/../../../../arm-atollic-eabi/lib/armv7-m\libm.a(lib_a-wf_sqrt.o)
__init_array_end                                  c:/program files (x86)/atollic/truestudio for stm32 9.1.0/armtools/bin/../lib/gcc/arm-atollic-eabi/6.3.1/../../../../arm-atollic-eabi/lib/armv7-m\libc.a(lib_a-init.o)
__init_array_start                                c:/program files (x86)/atollic/truestudio for stm32 9.1.0/armtools/bin/../lib/gcc/arm-atollic-eabi/6.3.1/../../../../arm-atollic-eabi/lib/armv7-m\libc.a(lib_a-init.o)
__kernel_cosf                                     c:/program files (x86)/atollic/truestudio for stm32 9.1.0/armtools/bin/../lib/gcc/arm-atollic-eabi/6.3.1/../../../../arm-atollic-eabi/lib/armv7-m\libm.a(lib_a-kf_cos.o)
                                                  c:/program files (x86)/atollic/truestudio for stm32 9.1.0/armtools/bin/../lib/gcc/arm-atollic-eabi/6.3.1/../../../../arm-atollic-eabi/lib/armv7-m\libm.a(lib_a-sf_sin.o)
                                                  c:/program files (x86)/atollic/truestudio for stm32 9.1.0/armtools/bin/../lib/gcc/arm-atollic-eabi/6.3.1/../../../../arm-atollic-eabi/lib/armv7-m\libm.a(lib_a-sf_cos.o)
__kernel_rem_pio2f                                c:/program files (x86)/atollic/truestudio for stm32 9.1.0/armtools/bin/../lib/gcc/arm-atollic-eabi/6.3.1/../../../../arm-atollic-eabi/lib/armv7-m\libm.a(lib_a-kf_rem_pio2.o)
                                                  c:/program files (x86)/atollic/truestudio for stm32 9.1.0/armtools/bin/../lib/gcc/arm-atollic-eabi/6.3.1/../../../../arm-atollic-eabi/lib/armv7-m\libm.a(lib_a-ef_rem_pio2.o)
__kernel_sinf                                     c:/program files (x86)/atollic/truestudio for stm32 9.1.0/armtools/bin/../lib/gcc/arm-atollic-eabi/6.3.1/../../../../arm-atollic-eabi/lib/armv7-m\libm.a(lib_a-kf_sin.o)
                                                  c:/program files (x86)/atollic/truestudio for stm32 9.1.0/armtools/bin/../lib/gcc/arm-atollic-eabi/6.3.1/../../../../arm-atollic-eabi/lib/armv7-m\libm.a(lib_a-sf_sin.o)
                                                  c:/program files (x86)/atollic/truestudio for stm32 9.1.0/armtools/bin/../lib/gcc/arm-atollic-eabi/6.3.1/../../../../arm-atollic-eabi/lib/armv7-m\libm.a(lib_a-sf_cos.o)
__ledf2                                           c:/program files (x86)/atollic/truestudio for stm32 9.1.0/armtools/bin/../lib/gcc/arm-atollic-eabi/6.3.1/armv7-m\libgcc.a(_arm_cmpdf2.o)
__lesf2                                           c:/program files (x86)/atollic/truestudio for stm32 9.1.0/armtools/bin/../lib/gcc/arm-atollic-eabi/6.3.1/armv7-m\libgcc.a(_arm_cmpsf2.o)
__libc_init_array                                 c:/program files (x86)/atollic/truestudio for stm32 9.1.0/armtools/bin/../lib/gcc/arm-atollic-eabi/6.3.1/../../../../arm-atollic-eabi/lib/armv7-m\libc.a(lib_a-init.o)
                                                  src\startup_stm32f10x_md.o
__ltdf2                                           c:/program files (x86)/atollic/truestudio for stm32 9.1.0/armtools/bin/../lib/gcc/arm-atollic-eabi/6.3.1/armv7-m\libgcc.a(_arm_cmpdf2.o)
__ltsf2                                           c:/program files (x86)/atollic/truestudio for stm32 9.1.0/armtools/bin/../lib/gcc/arm-atollic-eabi/6.3.1/armv7-m\libgcc.a(_arm_cmpsf2.o)
__muldf3                                          c:/program files (x86)/atollic/truestudio for stm32 9.1.0/armtools/bin/../lib/gcc/arm-atollic-eabi/6.3.1/armv7-m\libgcc.a(_arm_muldivdf3.o)
__mulsf3                                          c:/program files (x86)/atollic/truestudio for stm32 9.1.0/armtools/bin/../lib/gcc/arm-atollic-eabi/6.3.1/armv7-m\libgcc.a(_arm_muldivsf3.o)
__nedf2                                           c:/program files (x86)/atollic/truestudio for stm32 9.1.0/armtools/bin/../lib/gcc/arm-atollic-eabi/6.3.1/armv7-m\libgcc.a(_arm_cmpdf2.o)
__nesf2                                           c:/program files (x86)/atollic/truestudio for stm32 9.1.0/armtools/bin/../lib/gcc/arm-atollic-eabi/6.3.1/armv7-m\libgcc.a(_arm_cmpsf2.o)
__preinit_array_end                               c:/program files (x86)/atollic/truestudio for stm32 9.1.0/armtools/bin/../lib/gcc/arm-atollic-eabi/6.3.1/../../../../arm-atollic-eabi/lib/armv7-m\libc.a(lib_a-init.o)
__preinit_array_start                             c:/program files (x86)/atollic/truestudio for stm32 9.1.0/armtools/bin/../lib/gcc/arm-atollic-eabi/6.3.1/../../../../arm-atollic-eabi/lib/armv7-m\libc.a(lib_a-init.o)
__register_frame_info                             c:/program files (x86)/atollic/truestudio for stm32 9.1.0/armtools/bin/../lib/gcc/arm-atollic-eabi/6.3.1/armv7-m/crtbegin.o
__sf_fake_stderr                                  c:/program files (x86)/atollic/truestudio for stm32 9.1.0/armtools/bin/../lib/gcc/arm-atollic-eabi/6.3.1/../../../../arm-atollic-eabi/lib/armv7-m\libc.a(lib_a-impure.o)
__sf_fake_stdin                                   c:/program files (x86)/atollic/truestudio for stm32 9.1.0/armtools/bin/../lib/gcc/arm-atollic-eabi/6.3.1/../../../../arm-atollic-eabi/lib/armv7-m\libc.a(lib_a-impure.o)
__sf_fake_stdout                                  c:/program files (x86)/atollic/truestudio for stm32 9.1.0/armtools/bin/../lib/gcc/arm-atollic-eabi/6.3.1/../../../../arm-atollic-eabi/lib/armv7-m\libc.a(lib_a-impure.o)
__subdf3                                          c:/program files (x86)/atollic/truestudio for stm32 9.1.0/armtools/bin/../lib/gcc/arm-atollic-eabi/6.3.1/armv7-m\libgcc.a(_arm_addsubdf3.o)
__subsf3                                          c:/program files (x86)/atollic/truestudio for stm32 9.1.0/armtools/bin/../lib/gcc/arm-atollic-eabi/6.3.1/armv7-m\libgcc.a(_arm_addsubsf3.o)
__truncdfsf2                                      c:/program files (x86)/atollic/truestudio for stm32 9.1.0/armtools/bin/../lib/gcc/arm-atollic-eabi/6.3.1/armv7-m\libgcc.a(_arm_truncdfsf2.o)
__unordsf2                                        c:/program files (x86)/atollic/truestudio for stm32 9.1.0/armtools/bin/../lib/gcc/arm-atollic-eabi/6.3.1/armv7-m\libgcc.a(_arm_unordsf2.o)
_delay_ms                                         src\main.o
                                                  src\nuts_bolts.o
_ebss                                             src\startup_stm32f10x_md.o
_edata                                            src\startup_stm32f10x_md.o
_estack                                           src\startup_stm32f10x_md.o
_fini                                             c:/program files (x86)/atollic/truestudio for stm32 9.1.0/armtools/bin/../lib/gcc/arm-atollic-eabi/6.3.1/armv7-m/crti.o
_global_impure_ptr                                c:/program files (x86)/atollic/truestudio for stm32 9.1.0/armtools/bin/../lib/gcc/arm-atollic-eabi/6.3.1/../../../../arm-atollic-eabi/lib/armv7-m\libc.a(lib_a-impure.o)
_impure_ptr                                       c:/program files (x86)/atollic/truestudio for stm32 9.1.0/armtools/bin/../lib/gcc/arm-atollic-eabi/6.3.1/../../../../arm-atollic-eabi/lib/armv7-m\libc.a(lib_a-impure.o)
                                                  c:/program files (x86)/atollic/truestudio for stm32 9.1.0/armtools/bin/../lib/gcc/arm-atollic-eabi/6.3.1/../../../../arm-atollic-eabi/lib/armv7-m\libc.a(lib_a-errno.o)
_init                                             c:/program files (x86)/atollic/truestudio for stm32 9.1.0/armtools/bin/../lib/gcc/arm-atollic-eabi/6.3.1/armv7-m/crti.o
                                                  c:/program files (x86)/atollic/truestudio for stm32 9.1.0/armtools/bin/../lib/gcc/arm-atollic-eabi/6.3.1/../../../../arm-atollic-eabi/lib/armv7-m\libc.a(lib_a-init.o)
_sbss                                             src\startup_stm32f10x_md.o
_sdata                                            src\startup_stm32f10x_md.o
_sidata                                           src\startup_stm32f10x_md.o
atan2f                                            c:/program files (x86)/atollic/truestudio for stm32 9.1.0/armtools/bin/../lib/gcc/arm-atollic-eabi/6.3.1/../../../../arm-atollic-eabi/lib/armv7-m\libm.a(lib_a-wf_atan2.o)
                                                  src\motion_control.o
atanf                                             c:/program files (x86)/atollic/truestudio for stm32 9.1.0/armtools/bin/../lib/gcc/arm-atollic-eabi/6.3.1/../../../../arm-atollic-eabi/lib/armv7-m\libm.a(lib_a-sf_atan.o)
                                                  c:/program files (x86)/atollic/truestudio for stm32 9.1.0/armtools/bin/../lib/gcc/arm-atollic-eabi/6.3.1/../../../../arm-atollic-eabi/lib/armv7-m\libm.a(lib_a-ef_atan2.o)
bDeviceState                                      usb\usb_pwr.o
                                                  usb\usb_prop.o
                                                  usb\usb_endp.o
                                                  usb\hw_config.o
bIntPackSOF                                       usb\usb_istr.o
ceilf                                             c:/program files (x86)/atollic/truestudio for stm32 9.1.0/armtools/bin/../lib/gcc/arm-atollic-eabi/6.3.1/../../../../arm-atollic-eabi/lib/armv7-m\libm.a(lib_a-sf_ceil.o)
                                                  src\stepper.o
                                                  src\nuts_bolts.o
convert_delta_vector_to_unit_vector               src\nuts_bolts.o
                                                  src\planner.o
coolant_get_state                                 src\coolant_control.o
                                                  src\report.o
coolant_init                                      src\coolant_control.o
                                                  src\main.o
coolant_set_state                                 src\coolant_control.o
                                                  src\protocol.o
                                                  src\gcode.o
coolant_stop                                      src\coolant_control.o
                                                  src\motion_control.o
coolant_sync                                      src\coolant_control.o
                                                  src\gcode.o
copysignf                                         c:/program files (x86)/atollic/truestudio for stm32 9.1.0/armtools/bin/../lib/gcc/arm-atollic-eabi/6.3.1/../../../../arm-atollic-eabi/lib/armv7-m\libm.a(lib_a-sf_copysign.o)
                                                  c:/program files (x86)/atollic/truestudio for stm32 9.1.0/armtools/bin/../lib/gcc/arm-atollic-eabi/6.3.1/../../../../arm-atollic-eabi/lib/armv7-m\libm.a(lib_a-sf_scalbn.o)
cosf                                              c:/program files (x86)/atollic/truestudio for stm32 9.1.0/armtools/bin/../lib/gcc/arm-atollic-eabi/6.3.1/../../../../arm-atollic-eabi/lib/armv7-m\libm.a(lib_a-sf_cos.o)
                                                  src\motion_control.o
delay_ms                                          src\nuts_bolts.o
                                                  src\stepper.o
                                                  src\report.o
                                                  src\limits.o
delay_sec                                         src\nuts_bolts.o
                                                  src\protocol.o
                                                  src\motion_control.o
direction_pin_mask                                src\stepper.o
                                                  src\planner.o
eeprom_flush                                      src\eeprom.o
eeprom_get_char                                   src\eeprom.o
                                                  src\settings.o
eeprom_init                                       src\eeprom.o
                                                  src\main.o
eeprom_put_char                                   src\eeprom.o
                                                  src\settings.o
fSuspendEnabled                                   usb\usb_pwr.o
fabsf                                             c:/program files (x86)/atollic/truestudio for stm32 9.1.0/armtools/bin/../lib/gcc/arm-atollic-eabi/6.3.1/../../../../arm-atollic-eabi/lib/armv7-m\libm.a(lib_a-sf_fabs.o)
                                                  c:/program files (x86)/atollic/truestudio for stm32 9.1.0/armtools/bin/../lib/gcc/arm-atollic-eabi/6.3.1/../../../../arm-atollic-eabi/lib/armv7-m\libm.a(lib_a-sf_atan.o)
                                                  c:/program files (x86)/atollic/truestudio for stm32 9.1.0/armtools/bin/../lib/gcc/arm-atollic-eabi/6.3.1/../../../../arm-atollic-eabi/lib/armv7-m\libm.a(lib_a-ef_rem_pio2.o)
                                                  c:/program files (x86)/atollic/truestudio for stm32 9.1.0/armtools/bin/../lib/gcc/arm-atollic-eabi/6.3.1/../../../../arm-atollic-eabi/lib/armv7-m\libm.a(lib_a-ef_atan2.o)
floorf                                            c:/program files (x86)/atollic/truestudio for stm32 9.1.0/armtools/bin/../lib/gcc/arm-atollic-eabi/6.3.1/../../../../arm-atollic-eabi/lib/armv7-m\libm.a(lib_a-sf_floor.o)
                                                  c:/program files (x86)/atollic/truestudio for stm32 9.1.0/armtools/bin/../lib/gcc/arm-atollic-eabi/6.3.1/../../../../arm-atollic-eabi/lib/armv7-m\libm.a(lib_a-kf_rem_pio2.o)
                                                  src\spindle_control.o
                                                  src\motion_control.o
g_pfnVectors                                      src\startup_stm32f10x_md.o
gc_block                                          src\gcode.o
gc_execute_line                                   src\gcode.o
                                                  src\system.o
                                                  src\protocol.o
gc_init                                           src\gcode.o
                                                  src\main.o
gc_state                                          src\gcode.o
                                                  src\report.o
                                                  src\protocol.o
gc_sync_position                                  src\gcode.o
                                                  src\protocol.o
                                                  src\motion_control.o
                                                  src\main.o
hypot_f                                           src\nuts_bolts.o
                                                  src\gcode.o
jog_execute                                       src\jog.o
                                                  src\gcode.o
limit_pin_mask                                    src\stepper.o
                                                  src\limits.o
limit_value_by_axis_maximum                       src\nuts_bolts.o
                                                  src\planner.o
limits_disable                                    src\limits.o
                                                  src\motion_control.o
limits_get_state                                  src\limits.o
                                                  src\report.o
                                                  src\protocol.o
limits_go_home                                    src\limits.o
                                                  src\motion_control.o
limits_init                                       src\limits.o
                                                  src\settings.o
                                                  src\main.o
limits_soft_check                                 src\limits.o
                                                  src\motion_control.o
linecoding                                        usb\usb_prop.o
lroundf                                           c:/program files (x86)/atollic/truestudio for stm32 9.1.0/armtools/bin/../lib/gcc/arm-atollic-eabi/6.3.1/../../../../arm-atollic-eabi/lib/armv7-m\libm.a(lib_a-sf_lround.o)
                                                  src\planner.o
                                                  src\limits.o
                                                  src\gcode.o
main                                              src\main.o
                                                  src\startup_stm32f10x_md.o
matherr                                           c:/program files (x86)/atollic/truestudio for stm32 9.1.0/armtools/bin/../lib/gcc/arm-atollic-eabi/6.3.1/../../../../arm-atollic-eabi/lib/armv7-m\libm.a(lib_a-s_matherr.o)
                                                  c:/program files (x86)/atollic/truestudio for stm32 9.1.0/armtools/bin/../lib/gcc/arm-atollic-eabi/6.3.1/../../../../arm-atollic-eabi/lib/armv7-m\libm.a(lib_a-wf_sqrt.o)
mc_arc                                            src\motion_control.o
                                                  src\gcode.o
mc_dwell                                          src\motion_control.o
                                                  src\gcode.o
mc_homing_cycle                                   src\motion_control.o
                                                  src\system.o
mc_line                                           src\motion_control.o
                                                  src\jog.o
                                                  src\gcode.o
mc_probe_cycle                                    src\motion_control.o
                                                  src\gcode.o
mc_reset                                          src\motion_control.o
                                                  src\system.o
                                                  src\serial.o
                                                  src\limits.o
memcmp                                            c:/program files (x86)/atollic/truestudio for stm32 9.1.0/armtools/bin/../lib/gcc/arm-atollic-eabi/6.3.1/../../../../arm-atollic-eabi/lib/armv7-m\libc.a(lib_a-memcmp.o)
                                                  src\gcode.o
memcpy_from_eeprom_with_checksum                  src\eeprom.o
                                                  src\settings.o
memcpy_to_eeprom_with_checksum                    src\eeprom.o
                                                  src\settings.o
memset                                            c:/program files (x86)/atollic/truestudio for stm32 9.1.0/armtools/bin/../lib/gcc/arm-atollic-eabi/6.3.1/../../../../arm-atollic-eabi/lib/armv7-m\libc.a(lib_a-memset.o)
                                                  src\stepper.o
                                                  src\print.o
                                                  src\planner.o
                                                  src\gcode.o
                                                  src\eeprom.o
pEpInt_IN                                         usb\usb_istr.o
                                                  stm_usb_fs_lib\src\usb_int.o
pEpInt_OUT                                        usb\usb_istr.o
                                                  stm_usb_fs_lib\src\usb_int.o
pInformation                                      stm_usb_fs_lib\src\usb_init.o
                                                  usb\usb_prop.o
                                                  stm_usb_fs_lib\src\usb_core.o
pProperty                                         stm_usb_fs_lib\src\usb_init.o
                                                  stm_usb_fs_lib\src\usb_core.o
pUser_Standard_Requests                           stm_usb_fs_lib\src\usb_init.o
                                                  stm_usb_fs_lib\src\usb_core.o
plan_buffer_line                                  src\planner.o
                                                  src\motion_control.o
                                                  src\limits.o
plan_check_full_buffer                            src\planner.o
                                                  src\motion_control.o
plan_compute_profile_nominal_speed                src\planner.o
                                                  src\stepper.o
plan_cycle_reinitialize                           src\planner.o
                                                  src\protocol.o
plan_discard_current_block                        src\planner.o
                                                  src\stepper.o
plan_get_block_buffer_available                   src\planner.o
                                                  src\report.o
plan_get_block_buffer_count                       src\planner.o
plan_get_current_block                            src\planner.o
                                                  src\stepper.o
                                                  src\protocol.o
                                                  src\jog.o
plan_get_exec_block_exit_speed_sqr                src\planner.o
                                                  src\stepper.o
plan_get_system_motion_block                      src\planner.o
                                                  src\stepper.o
plan_next_block_index                             src\planner.o
plan_reset                                        src\planner.o
                                                  src\protocol.o
                                                  src\motion_control.o
                                                  src\main.o
plan_reset_buffer                                 src\planner.o
plan_sync_position                                src\planner.o
                                                  src\protocol.o
                                                  src\motion_control.o
                                                  src\main.o
plan_update_velocity_profile_parameters           src\planner.o
                                                  src\protocol.o
printFloat                                        src\print.o
                                                  src\report.o
printFloat_CoordValue                             src\print.o
                                                  src\report.o
printFloat_RateValue                              src\print.o
                                                  src\report.o
printInteger                                      src\print.o
printString                                       src\print.o
                                                  src\report.o
print_uint32_base10                               src\print.o
print_uint8_base10                                src\print.o
                                                  src\report.o
print_uint8_base2_ndigit                          src\print.o
probe_configure_invert_mask                       src\probe.o
                                                  src\settings.o
                                                  src\motion_control.o
probe_get_state                                   src\probe.o
                                                  src\report.o
                                                  src\motion_control.o
probe_init                                        src\probe.o
                                                  src\main.o
probe_invert_mask                                 src\probe.o
probe_state_monitor                               src\probe.o
                                                  src\stepper.o
protocol_auto_cycle_start                         src\protocol.o
                                                  src\motion_control.o
protocol_buffer_synchronize                       src\protocol.o
                                                  src\system.o
                                                  src\spindle_control.o
                                                  src\settings.o
                                                  src\motion_control.o
                                                  src\gcode.o
                                                  src\coolant_control.o
protocol_exec_rt_system                           src\protocol.o
                                                  src\nuts_bolts.o
protocol_execute_realtime                         src\protocol.o
                                                  src\nuts_bolts.o
                                                  src\motion_control.o
                                                  src\limits.o
                                                  src\gcode.o
protocol_main_loop                                src\protocol.o
                                                  src\main.o
read_float                                        src\nuts_bolts.o
                                                  src\system.o
                                                  src\gcode.o
read_global_settings                              src\settings.o
report_alarm_message                              src\report.o
                                                  src\protocol.o
report_build_info                                 src\report.o
                                                  src\system.o
report_echo_line_received                         src\report.o
report_execute_startup_message                    src\report.o
                                                  src\system.o
report_feedback_message                           src\report.o
                                                  src\system.o
                                                  src\protocol.o
                                                  src\gcode.o
report_gcode_modes                                src\report.o
                                                  src\system.o
report_grbl_help                                  src\report.o
                                                  src\system.o
report_grbl_settings                              src\report.o
                                                  src\system.o
                                                  src\settings.o
report_init_message                               src\report.o
                                                  src\main.o
report_ngc_parameters                             src\report.o
                                                  src\system.o
report_probe_parameters                           src\report.o
                                                  src\motion_control.o
report_realtime_status                            src\report.o
                                                  src\protocol.o
report_startup_line                               src\report.o
                                                  src\system.o
report_status_message                             src\report.o
                                                  src\system.o
                                                  src\settings.o
                                                  src\protocol.o
                                                  src\gcode.o
report_util_setting_prefix                        src\report.o
scalbnf                                           c:/program files (x86)/atollic/truestudio for stm32 9.1.0/armtools/bin/../lib/gcc/arm-atollic-eabi/6.3.1/../../../../arm-atollic-eabi/lib/armv7-m\libm.a(lib_a-sf_scalbn.o)
                                                  c:/program files (x86)/atollic/truestudio for stm32 9.1.0/armtools/bin/../lib/gcc/arm-atollic-eabi/6.3.1/../../../../arm-atollic-eabi/lib/armv7-m\libm.a(lib_a-kf_rem_pio2.o)
serial_get_rx_buffer_available                    src\serial.o
                                                  src\report.o
serial_get_rx_buffer_count                        src\serial.o
serial_get_tx_buffer_count                        src\serial.o
serial_init                                       src\serial.o
                                                  src\main.o
serial_read                                       src\serial.o
                                                  src\protocol.o
serial_reset_read_buffer                          src\serial.o
                                                  src\main.o
serial_rx_buffer                                  src\serial.o
serial_rx_buffer_head                             src\serial.o
serial_rx_buffer_tail                             src\serial.o
serial_tx_buffer                                  src\serial.o
                                                  usb\usb_endp.o
serial_tx_buffer_head                             src\serial.o
                                                  usb\usb_endp.o
serial_tx_buffer_tail                             src\serial.o
                                                  usb\usb_endp.o
serial_write                                      src\serial.o
                                                  src\report.o
                                                  src\print.o
settings                                          src\settings.o
                                                  src\system.o
                                                  src\stepper.o
                                                  src\spindle_control.o
                                                  src\report.o
                                                  src\protocol.o
                                                  src\probe.o
                                                  src\print.o
                                                  src\planner.o
                                                  src\motion_control.o
                                                  src\main.o
                                                  src\limits.o
                                                  src\jog.o
                                                  src\gcode.o
settings_init                                     src\settings.o
                                                  src\main.o
settings_read_build_info                          src\settings.o
                                                  src\system.o
settings_read_coord_data                          src\settings.o
                                                  src\report.o
                                                  src\gcode.o
settings_read_startup_line                        src\settings.o
                                                  src\system.o
settings_restore                                  src\settings.o
                                                  src\system.o
settings_store_build_info                         src\settings.o
                                                  src\system.o
settings_store_global_setting                     src\settings.o
                                                  src\system.o
settings_store_startup_line                       src\settings.o
                                                  src\system.o
settings_write_coord_data                         src\settings.o
                                                  src\gcode.o
sinf                                              c:/program files (x86)/atollic/truestudio for stm32 9.1.0/armtools/bin/../lib/gcc/arm-atollic-eabi/6.3.1/../../../../arm-atollic-eabi/lib/armv7-m\libm.a(lib_a-sf_sin.o)
                                                  src\motion_control.o
spindle_compute_pwm_value                         src\spindle_control.o
                                                  src\stepper.o
spindle_get_state                                 src\spindle_control.o
                                                  src\report.o
spindle_init                                      src\spindle_control.o
                                                  src\settings.o
                                                  src\main.o
spindle_set_speed                                 src\spindle_control.o
                                                  src\stepper.o
spindle_set_state                                 src\spindle_control.o
                                                  src\protocol.o
                                                  src\gcode.o
spindle_stop                                      src\spindle_control.o
                                                  src\motion_control.o
spindle_sync                                      src\spindle_control.o
                                                  src\motion_control.o
                                                  src\gcode.o
sqrtf                                             c:/program files (x86)/atollic/truestudio for stm32 9.1.0/armtools/bin/../lib/gcc/arm-atollic-eabi/6.3.1/../../../../arm-atollic-eabi/lib/armv7-m\libm.a(lib_a-wf_sqrt.o)
                                                  src\stepper.o
                                                  src\planner.o
                                                  src\nuts_bolts.o
                                                  src\motion_control.o
                                                  src\limits.o
                                                  src\gcode.o
st_generate_step_dir_invert_masks                 src\stepper.o
                                                  src\settings.o
st_get_realtime_rate                              src\stepper.o
                                                  src\report.o
st_go_idle                                        src\stepper.o
                                                  src\system.o
                                                  src\protocol.o
                                                  src\motion_control.o
st_prep_buffer                                    src\stepper.o
                                                  src\protocol.o
                                                  src\limits.o
                                                  src\jog.o
st_reset                                          src\stepper.o
                                                  src\protocol.o
                                                  src\motion_control.o
                                                  src\main.o
                                                  src\limits.o
st_update_plan_block_parameters                   src\stepper.o
                                                  src\protocol.o
                                                  src\planner.o
st_wake_up                                        src\stepper.o
                                                  src\protocol.o
                                                  src\limits.o
                                                  src\jog.o
step_pin_mask                                     src\stepper.o
                                                  src\limits.o
stepper_init                                      src\stepper.o
                                                  src\main.o
sys                                               src\main.o
                                                  src\system.o
                                                  src\stepper.o
                                                  src\spindle_control.o
                                                  src\serial.o
                                                  src\report.o
                                                  src\protocol.o
                                                  src\planner.o
                                                  src\nuts_bolts.o
                                                  src\motion_control.o
                                                  src\limits.o
                                                  src\jog.o
                                                  src\gcode.o
                                                  src\coolant_control.o
sys_position                                      src\main.o
                                                  src\stepper.o
                                                  src\report.o
                                                  src\probe.o
                                                  src\planner.o
                                                  src\motion_control.o
                                                  src\limits.o
                                                  src\gcode.o
sys_probe_position                                src\main.o
                                                  src\report.o
                                                  src\probe.o
                                                  src\motion_control.o
sys_probe_state                                   src\main.o
                                                  src\stepper.o
                                                  src\probe.o
                                                  src\motion_control.o
sys_rt_exec_accessory_override                    src\main.o
                                                  src\system.o
                                                  src\protocol.o
sys_rt_exec_alarm                                 src\main.o
                                                  src\system.o
                                                  src\stepper.o
                                                  src\protocol.o
                                                  src\motion_control.o
                                                  src\limits.o
sys_rt_exec_motion_override                       src\main.o
                                                  src\system.o
                                                  src\protocol.o
sys_rt_exec_state                                 src\main.o
                                                  src\system.o
                                                  src\serial.o
                                                  src\protocol.o
                                                  src\probe.o
                                                  src\motion_control.o
                                                  src\limits.o
system_check_safety_door_ajar                     src\system.o
                                                  src\protocol.o
system_check_travel_limits                        src\system.o
                                                  src\limits.o
                                                  src\jog.o
system_clear_exec_accessory_overrides             src\system.o
                                                  src\protocol.o
system_clear_exec_alarm                           src\system.o
                                                  src\protocol.o
system_clear_exec_motion_overrides                src\system.o
                                                  src\protocol.o
system_clear_exec_state_flag                      src\system.o
                                                  src\protocol.o
                                                  src\limits.o
system_control_get_state                          src\system.o
                                                  src\report.o
system_convert_array_steps_to_mpos                src\system.o
                                                  src\report.o
                                                  src\limits.o
                                                  src\gcode.o
system_convert_axis_steps_to_mpos                 src\system.o
system_execute_line                               src\system.o
                                                  src\protocol.o
system_execute_startup                            src\system.o
                                                  src\protocol.o
system_flag_wco_change                            src\system.o
                                                  src\settings.o
                                                  src\gcode.o
system_init                                       src\system.o
                                                  src\main.o
system_set_exec_accessory_override_flag           src\system.o
                                                  src\serial.o
                                                  src\protocol.o
system_set_exec_alarm                             src\system.o
                                                  src\motion_control.o
                                                  src\limits.o
system_set_exec_motion_override_flag              src\system.o
                                                  src\serial.o
system_set_exec_state_flag                        src\system.o
                                                  src\stepper.o
                                                  src\serial.o
                                                  src\protocol.o
                                                  src\motion_control.o
                                                  src\limits.o
                                                  src\gcode.o
txUsbLock                                         usb\usb_endp.o
                                                  src\serial.o
wInterrupt_Mask                                   stm_usb_fs_lib\src\usb_init.o
                                                  usb\usb_pwr.o
                                                  usb\usb_istr.o
                                                  stm_usb_fs_lib\src\usb_sil.o
wIstr                                             usb\usb_istr.o
                                                  stm_usb_fs_lib\src\usb_int.o
write_global_settings                             src\settings.o
